
ctarget:     file format elf64-x86-64


Disassembly of section .init:

0000000000400ce8 <_init>:
  400ce8:	48 83 ec 08          	sub    $0x8,%rsp
  400cec:	48 8b 05 05 33 20 00 	mov    0x203305(%rip),%rax        # 603ff8 <_DYNAMIC+0x1e0>
  400cf3:	48 85 c0             	test   %rax,%rax
  400cf6:	74 05                	je     400cfd <_init+0x15>
  400cf8:	e8 33 02 00 00       	callq  400f30 <socket@plt+0x10>
  400cfd:	48 83 c4 08          	add    $0x8,%rsp
  400d01:	c3                   	retq   

Disassembly of section .plt:

0000000000400d10 <strcasecmp@plt-0x10>:
  400d10:	ff 35 f2 32 20 00    	pushq  0x2032f2(%rip)        # 604008 <_GLOBAL_OFFSET_TABLE_+0x8>
  400d16:	ff 25 f4 32 20 00    	jmpq   *0x2032f4(%rip)        # 604010 <_GLOBAL_OFFSET_TABLE_+0x10>
  400d1c:	0f 1f 40 00          	nopl   0x0(%rax)

0000000000400d20 <strcasecmp@plt>:
  400d20:	ff 25 f2 32 20 00    	jmpq   *0x2032f2(%rip)        # 604018 <_GLOBAL_OFFSET_TABLE_+0x18>
  400d26:	68 00 00 00 00       	pushq  $0x0
  400d2b:	e9 e0 ff ff ff       	jmpq   400d10 <_init+0x28>

0000000000400d30 <__errno_location@plt>:
  400d30:	ff 25 ea 32 20 00    	jmpq   *0x2032ea(%rip)        # 604020 <_GLOBAL_OFFSET_TABLE_+0x20>
  400d36:	68 01 00 00 00       	pushq  $0x1
  400d3b:	e9 d0 ff ff ff       	jmpq   400d10 <_init+0x28>

0000000000400d40 <srandom@plt>:
  400d40:	ff 25 e2 32 20 00    	jmpq   *0x2032e2(%rip)        # 604028 <_GLOBAL_OFFSET_TABLE_+0x28>
  400d46:	68 02 00 00 00       	pushq  $0x2
  400d4b:	e9 c0 ff ff ff       	jmpq   400d10 <_init+0x28>

0000000000400d50 <strncmp@plt>:
  400d50:	ff 25 da 32 20 00    	jmpq   *0x2032da(%rip)        # 604030 <_GLOBAL_OFFSET_TABLE_+0x30>
  400d56:	68 03 00 00 00       	pushq  $0x3
  400d5b:	e9 b0 ff ff ff       	jmpq   400d10 <_init+0x28>

0000000000400d60 <strcpy@plt>:
  400d60:	ff 25 d2 32 20 00    	jmpq   *0x2032d2(%rip)        # 604038 <_GLOBAL_OFFSET_TABLE_+0x38>
  400d66:	68 04 00 00 00       	pushq  $0x4
  400d6b:	e9 a0 ff ff ff       	jmpq   400d10 <_init+0x28>

0000000000400d70 <puts@plt>:
  400d70:	ff 25 ca 32 20 00    	jmpq   *0x2032ca(%rip)        # 604040 <_GLOBAL_OFFSET_TABLE_+0x40>
  400d76:	68 05 00 00 00       	pushq  $0x5
  400d7b:	e9 90 ff ff ff       	jmpq   400d10 <_init+0x28>

0000000000400d80 <write@plt>:
  400d80:	ff 25 c2 32 20 00    	jmpq   *0x2032c2(%rip)        # 604048 <_GLOBAL_OFFSET_TABLE_+0x48>
  400d86:	68 06 00 00 00       	pushq  $0x6
  400d8b:	e9 80 ff ff ff       	jmpq   400d10 <_init+0x28>

0000000000400d90 <mmap@plt>:
  400d90:	ff 25 ba 32 20 00    	jmpq   *0x2032ba(%rip)        # 604050 <_GLOBAL_OFFSET_TABLE_+0x50>
  400d96:	68 07 00 00 00       	pushq  $0x7
  400d9b:	e9 70 ff ff ff       	jmpq   400d10 <_init+0x28>

0000000000400da0 <printf@plt>:
  400da0:	ff 25 b2 32 20 00    	jmpq   *0x2032b2(%rip)        # 604058 <_GLOBAL_OFFSET_TABLE_+0x58>
  400da6:	68 08 00 00 00       	pushq  $0x8
  400dab:	e9 60 ff ff ff       	jmpq   400d10 <_init+0x28>

0000000000400db0 <memset@plt>:
  400db0:	ff 25 aa 32 20 00    	jmpq   *0x2032aa(%rip)        # 604060 <_GLOBAL_OFFSET_TABLE_+0x60>
  400db6:	68 09 00 00 00       	pushq  $0x9
  400dbb:	e9 50 ff ff ff       	jmpq   400d10 <_init+0x28>

0000000000400dc0 <alarm@plt>:
  400dc0:	ff 25 a2 32 20 00    	jmpq   *0x2032a2(%rip)        # 604068 <_GLOBAL_OFFSET_TABLE_+0x68>
  400dc6:	68 0a 00 00 00       	pushq  $0xa
  400dcb:	e9 40 ff ff ff       	jmpq   400d10 <_init+0x28>

0000000000400dd0 <close@plt>:
  400dd0:	ff 25 9a 32 20 00    	jmpq   *0x20329a(%rip)        # 604070 <_GLOBAL_OFFSET_TABLE_+0x70>
  400dd6:	68 0b 00 00 00       	pushq  $0xb
  400ddb:	e9 30 ff ff ff       	jmpq   400d10 <_init+0x28>

0000000000400de0 <read@plt>:
  400de0:	ff 25 92 32 20 00    	jmpq   *0x203292(%rip)        # 604078 <_GLOBAL_OFFSET_TABLE_+0x78>
  400de6:	68 0c 00 00 00       	pushq  $0xc
  400deb:	e9 20 ff ff ff       	jmpq   400d10 <_init+0x28>

0000000000400df0 <__libc_start_main@plt>:
  400df0:	ff 25 8a 32 20 00    	jmpq   *0x20328a(%rip)        # 604080 <_GLOBAL_OFFSET_TABLE_+0x80>
  400df6:	68 0d 00 00 00       	pushq  $0xd
  400dfb:	e9 10 ff ff ff       	jmpq   400d10 <_init+0x28>

0000000000400e00 <signal@plt>:
  400e00:	ff 25 82 32 20 00    	jmpq   *0x203282(%rip)        # 604088 <_GLOBAL_OFFSET_TABLE_+0x88>
  400e06:	68 0e 00 00 00       	pushq  $0xe
  400e0b:	e9 00 ff ff ff       	jmpq   400d10 <_init+0x28>

0000000000400e10 <gethostbyname@plt>:
  400e10:	ff 25 7a 32 20 00    	jmpq   *0x20327a(%rip)        # 604090 <_GLOBAL_OFFSET_TABLE_+0x90>
  400e16:	68 0f 00 00 00       	pushq  $0xf
  400e1b:	e9 f0 fe ff ff       	jmpq   400d10 <_init+0x28>

0000000000400e20 <fprintf@plt>:
  400e20:	ff 25 72 32 20 00    	jmpq   *0x203272(%rip)        # 604098 <_GLOBAL_OFFSET_TABLE_+0x98>
  400e26:	68 10 00 00 00       	pushq  $0x10
  400e2b:	e9 e0 fe ff ff       	jmpq   400d10 <_init+0x28>

0000000000400e30 <strtol@plt>:
  400e30:	ff 25 6a 32 20 00    	jmpq   *0x20326a(%rip)        # 6040a0 <_GLOBAL_OFFSET_TABLE_+0xa0>
  400e36:	68 11 00 00 00       	pushq  $0x11
  400e3b:	e9 d0 fe ff ff       	jmpq   400d10 <_init+0x28>

0000000000400e40 <memcpy@plt>:
  400e40:	ff 25 62 32 20 00    	jmpq   *0x203262(%rip)        # 6040a8 <_GLOBAL_OFFSET_TABLE_+0xa8>
  400e46:	68 12 00 00 00       	pushq  $0x12
  400e4b:	e9 c0 fe ff ff       	jmpq   400d10 <_init+0x28>

0000000000400e50 <time@plt>:
  400e50:	ff 25 5a 32 20 00    	jmpq   *0x20325a(%rip)        # 6040b0 <_GLOBAL_OFFSET_TABLE_+0xb0>
  400e56:	68 13 00 00 00       	pushq  $0x13
  400e5b:	e9 b0 fe ff ff       	jmpq   400d10 <_init+0x28>

0000000000400e60 <random@plt>:
  400e60:	ff 25 52 32 20 00    	jmpq   *0x203252(%rip)        # 6040b8 <_GLOBAL_OFFSET_TABLE_+0xb8>
  400e66:	68 14 00 00 00       	pushq  $0x14
  400e6b:	e9 a0 fe ff ff       	jmpq   400d10 <_init+0x28>

0000000000400e70 <_IO_getc@plt>:
  400e70:	ff 25 4a 32 20 00    	jmpq   *0x20324a(%rip)        # 6040c0 <_GLOBAL_OFFSET_TABLE_+0xc0>
  400e76:	68 15 00 00 00       	pushq  $0x15
  400e7b:	e9 90 fe ff ff       	jmpq   400d10 <_init+0x28>

0000000000400e80 <__isoc99_sscanf@plt>:
  400e80:	ff 25 42 32 20 00    	jmpq   *0x203242(%rip)        # 6040c8 <_GLOBAL_OFFSET_TABLE_+0xc8>
  400e86:	68 16 00 00 00       	pushq  $0x16
  400e8b:	e9 80 fe ff ff       	jmpq   400d10 <_init+0x28>

0000000000400e90 <munmap@plt>:
  400e90:	ff 25 3a 32 20 00    	jmpq   *0x20323a(%rip)        # 6040d0 <_GLOBAL_OFFSET_TABLE_+0xd0>
  400e96:	68 17 00 00 00       	pushq  $0x17
  400e9b:	e9 70 fe ff ff       	jmpq   400d10 <_init+0x28>

0000000000400ea0 <bcopy@plt>:
  400ea0:	ff 25 32 32 20 00    	jmpq   *0x203232(%rip)        # 6040d8 <_GLOBAL_OFFSET_TABLE_+0xd8>
  400ea6:	68 18 00 00 00       	pushq  $0x18
  400eab:	e9 60 fe ff ff       	jmpq   400d10 <_init+0x28>

0000000000400eb0 <fopen@plt>:
  400eb0:	ff 25 2a 32 20 00    	jmpq   *0x20322a(%rip)        # 6040e0 <_GLOBAL_OFFSET_TABLE_+0xe0>
  400eb6:	68 19 00 00 00       	pushq  $0x19
  400ebb:	e9 50 fe ff ff       	jmpq   400d10 <_init+0x28>

0000000000400ec0 <getopt@plt>:
  400ec0:	ff 25 22 32 20 00    	jmpq   *0x203222(%rip)        # 6040e8 <_GLOBAL_OFFSET_TABLE_+0xe8>
  400ec6:	68 1a 00 00 00       	pushq  $0x1a
  400ecb:	e9 40 fe ff ff       	jmpq   400d10 <_init+0x28>

0000000000400ed0 <strtoul@plt>:
  400ed0:	ff 25 1a 32 20 00    	jmpq   *0x20321a(%rip)        # 6040f0 <_GLOBAL_OFFSET_TABLE_+0xf0>
  400ed6:	68 1b 00 00 00       	pushq  $0x1b
  400edb:	e9 30 fe ff ff       	jmpq   400d10 <_init+0x28>

0000000000400ee0 <gethostname@plt>:
  400ee0:	ff 25 12 32 20 00    	jmpq   *0x203212(%rip)        # 6040f8 <_GLOBAL_OFFSET_TABLE_+0xf8>
  400ee6:	68 1c 00 00 00       	pushq  $0x1c
  400eeb:	e9 20 fe ff ff       	jmpq   400d10 <_init+0x28>

0000000000400ef0 <sprintf@plt>:
  400ef0:	ff 25 0a 32 20 00    	jmpq   *0x20320a(%rip)        # 604100 <_GLOBAL_OFFSET_TABLE_+0x100>
  400ef6:	68 1d 00 00 00       	pushq  $0x1d
  400efb:	e9 10 fe ff ff       	jmpq   400d10 <_init+0x28>

0000000000400f00 <exit@plt>:
  400f00:	ff 25 02 32 20 00    	jmpq   *0x203202(%rip)        # 604108 <_GLOBAL_OFFSET_TABLE_+0x108>
  400f06:	68 1e 00 00 00       	pushq  $0x1e
  400f0b:	e9 00 fe ff ff       	jmpq   400d10 <_init+0x28>

0000000000400f10 <connect@plt>:
  400f10:	ff 25 fa 31 20 00    	jmpq   *0x2031fa(%rip)        # 604110 <_GLOBAL_OFFSET_TABLE_+0x110>
  400f16:	68 1f 00 00 00       	pushq  $0x1f
  400f1b:	e9 f0 fd ff ff       	jmpq   400d10 <_init+0x28>

0000000000400f20 <socket@plt>:
  400f20:	ff 25 f2 31 20 00    	jmpq   *0x2031f2(%rip)        # 604118 <_GLOBAL_OFFSET_TABLE_+0x118>
  400f26:	68 20 00 00 00       	pushq  $0x20
  400f2b:	e9 e0 fd ff ff       	jmpq   400d10 <_init+0x28>

Disassembly of section .plt.got:

0000000000400f30 <.plt.got>:
  400f30:	ff 25 c2 30 20 00    	jmpq   *0x2030c2(%rip)        # 603ff8 <_DYNAMIC+0x1e0>
  400f36:	66 90                	xchg   %ax,%ax

Disassembly of section .text:

0000000000400f40 <_start>:
  400f40:	31 ed                	xor    %ebp,%ebp
  400f42:	49 89 d1             	mov    %rdx,%r9
  400f45:	5e                   	pop    %rsi
  400f46:	48 89 e2             	mov    %rsp,%rdx
  400f49:	48 83 e4 f0          	and    $0xfffffffffffffff0,%rsp
  400f4d:	50                   	push   %rax
  400f4e:	54                   	push   %rsp
  400f4f:	49 c7 c0 70 2d 40 00 	mov    $0x402d70,%r8
  400f56:	48 c7 c1 00 2d 40 00 	mov    $0x402d00,%rcx
  400f5d:	48 c7 c7 00 12 40 00 	mov    $0x401200,%rdi
  400f64:	e8 87 fe ff ff       	callq  400df0 <__libc_start_main@plt>
  400f69:	f4                   	hlt    
  400f6a:	66 0f 1f 44 00 00    	nopw   0x0(%rax,%rax,1)

0000000000400f70 <deregister_tm_clones>:
  400f70:	b8 97 44 60 00       	mov    $0x604497,%eax
  400f75:	55                   	push   %rbp
  400f76:	48 2d 90 44 60 00    	sub    $0x604490,%rax
  400f7c:	48 83 f8 0e          	cmp    $0xe,%rax
  400f80:	48 89 e5             	mov    %rsp,%rbp
  400f83:	77 02                	ja     400f87 <deregister_tm_clones+0x17>
  400f85:	5d                   	pop    %rbp
  400f86:	c3                   	retq   
  400f87:	b8 00 00 00 00       	mov    $0x0,%eax
  400f8c:	48 85 c0             	test   %rax,%rax
  400f8f:	74 f4                	je     400f85 <deregister_tm_clones+0x15>
  400f91:	5d                   	pop    %rbp
  400f92:	bf 90 44 60 00       	mov    $0x604490,%edi
  400f97:	ff e0                	jmpq   *%rax
  400f99:	0f 1f 80 00 00 00 00 	nopl   0x0(%rax)

0000000000400fa0 <register_tm_clones>:
  400fa0:	b8 90 44 60 00       	mov    $0x604490,%eax
  400fa5:	55                   	push   %rbp
  400fa6:	48 2d 90 44 60 00    	sub    $0x604490,%rax
  400fac:	48 c1 f8 03          	sar    $0x3,%rax
  400fb0:	48 89 e5             	mov    %rsp,%rbp
  400fb3:	48 89 c2             	mov    %rax,%rdx
  400fb6:	48 c1 ea 3f          	shr    $0x3f,%rdx
  400fba:	48 01 d0             	add    %rdx,%rax
  400fbd:	48 d1 f8             	sar    %rax
  400fc0:	75 02                	jne    400fc4 <register_tm_clones+0x24>
  400fc2:	5d                   	pop    %rbp
  400fc3:	c3                   	retq   
  400fc4:	ba 00 00 00 00       	mov    $0x0,%edx
  400fc9:	48 85 d2             	test   %rdx,%rdx
  400fcc:	74 f4                	je     400fc2 <register_tm_clones+0x22>
  400fce:	5d                   	pop    %rbp
  400fcf:	48 89 c6             	mov    %rax,%rsi
  400fd2:	bf 90 44 60 00       	mov    $0x604490,%edi
  400fd7:	ff e2                	jmpq   *%rdx
  400fd9:	0f 1f 80 00 00 00 00 	nopl   0x0(%rax)

0000000000400fe0 <__do_global_dtors_aux>:
  400fe0:	80 3d d1 34 20 00 00 	cmpb   $0x0,0x2034d1(%rip)        # 6044b8 <completed.6385>
  400fe7:	75 11                	jne    400ffa <__do_global_dtors_aux+0x1a>
  400fe9:	55                   	push   %rbp
  400fea:	48 89 e5             	mov    %rsp,%rbp
  400fed:	e8 7e ff ff ff       	callq  400f70 <deregister_tm_clones>
  400ff2:	5d                   	pop    %rbp
  400ff3:	c6 05 be 34 20 00 01 	movb   $0x1,0x2034be(%rip)        # 6044b8 <completed.6385>
  400ffa:	f3 c3                	repz retq 
  400ffc:	0f 1f 40 00          	nopl   0x0(%rax)

0000000000401000 <frame_dummy>:
  401000:	48 83 3d 08 2e 20 00 	cmpq   $0x0,0x202e08(%rip)        # 603e10 <__JCR_END__>
  401007:	00 
  401008:	74 1e                	je     401028 <frame_dummy+0x28>
  40100a:	b8 00 00 00 00       	mov    $0x0,%eax
  40100f:	48 85 c0             	test   %rax,%rax
  401012:	74 14                	je     401028 <frame_dummy+0x28>
  401014:	55                   	push   %rbp
  401015:	bf 10 3e 60 00       	mov    $0x603e10,%edi
  40101a:	48 89 e5             	mov    %rsp,%rbp
  40101d:	ff d0                	callq  *%rax
  40101f:	5d                   	pop    %rbp
  401020:	e9 7b ff ff ff       	jmpq   400fa0 <register_tm_clones>
  401025:	0f 1f 00             	nopl   (%rax)
  401028:	e9 73 ff ff ff       	jmpq   400fa0 <register_tm_clones>
  40102d:	0f 1f 00             	nopl   (%rax)

0000000000401030 <usage>:
  401030:	48 83 ec 08          	sub    $0x8,%rsp
  401034:	48 89 fe             	mov    %rdi,%rsi
  401037:	83 3d aa 34 20 00 00 	cmpl   $0x0,0x2034aa(%rip)        # 6044e8 <is_checker>
  40103e:	74 39                	je     401079 <usage+0x49>
  401040:	bf 88 2d 40 00       	mov    $0x402d88,%edi
  401045:	b8 00 00 00 00       	mov    $0x0,%eax
  40104a:	e8 51 fd ff ff       	callq  400da0 <printf@plt>
  40104f:	bf c0 2d 40 00       	mov    $0x402dc0,%edi
  401054:	e8 17 fd ff ff       	callq  400d70 <puts@plt>
  401059:	bf 38 2f 40 00       	mov    $0x402f38,%edi
  40105e:	e8 0d fd ff ff       	callq  400d70 <puts@plt>
  401063:	bf e8 2d 40 00       	mov    $0x402de8,%edi
  401068:	e8 03 fd ff ff       	callq  400d70 <puts@plt>
  40106d:	bf 52 2f 40 00       	mov    $0x402f52,%edi
  401072:	e8 f9 fc ff ff       	callq  400d70 <puts@plt>
  401077:	eb 2d                	jmp    4010a6 <usage+0x76>
  401079:	bf 6e 2f 40 00       	mov    $0x402f6e,%edi
  40107e:	b8 00 00 00 00       	mov    $0x0,%eax
  401083:	e8 18 fd ff ff       	callq  400da0 <printf@plt>
  401088:	bf 10 2e 40 00       	mov    $0x402e10,%edi
  40108d:	e8 de fc ff ff       	callq  400d70 <puts@plt>
  401092:	bf 38 2e 40 00       	mov    $0x402e38,%edi
  401097:	e8 d4 fc ff ff       	callq  400d70 <puts@plt>
  40109c:	bf 8c 2f 40 00       	mov    $0x402f8c,%edi
  4010a1:	e8 ca fc ff ff       	callq  400d70 <puts@plt>
  4010a6:	bf 00 00 00 00       	mov    $0x0,%edi
  4010ab:	e8 50 fe ff ff       	callq  400f00 <exit@plt>

00000000004010b0 <initialize_target>:
  4010b0:	55                   	push   %rbp
  4010b1:	53                   	push   %rbx
  4010b2:	48 81 ec 08 21 00 00 	sub    $0x2108,%rsp
  4010b9:	89 f5                	mov    %esi,%ebp
  4010bb:	89 3d 17 34 20 00    	mov    %edi,0x203417(%rip)        # 6044d8 <check_level>
  4010c1:	8b 3d 81 30 20 00    	mov    0x203081(%rip),%edi        # 604148 <target_id>
  4010c7:	e8 13 1c 00 00       	callq  402cdf <gencookie>
  4010cc:	89 05 12 34 20 00    	mov    %eax,0x203412(%rip)        # 6044e4 <cookie>
  4010d2:	89 c7                	mov    %eax,%edi
  4010d4:	e8 06 1c 00 00       	callq  402cdf <gencookie>
  4010d9:	89 05 01 34 20 00    	mov    %eax,0x203401(%rip)        # 6044e0 <authkey>
  4010df:	8b 05 63 30 20 00    	mov    0x203063(%rip),%eax        # 604148 <target_id>
  4010e5:	8d 78 01             	lea    0x1(%rax),%edi
  4010e8:	e8 53 fc ff ff       	callq  400d40 <srandom@plt>
  4010ed:	e8 6e fd ff ff       	callq  400e60 <random@plt>
  4010f2:	89 c7                	mov    %eax,%edi
  4010f4:	e8 ca 02 00 00       	callq  4013c3 <scramble>
  4010f9:	89 c3                	mov    %eax,%ebx
  4010fb:	85 ed                	test   %ebp,%ebp
  4010fd:	74 18                	je     401117 <initialize_target+0x67>
  4010ff:	bf 00 00 00 00       	mov    $0x0,%edi
  401104:	e8 47 fd ff ff       	callq  400e50 <time@plt>
  401109:	89 c7                	mov    %eax,%edi
  40110b:	e8 30 fc ff ff       	callq  400d40 <srandom@plt>
  401110:	e8 4b fd ff ff       	callq  400e60 <random@plt>
  401115:	eb 05                	jmp    40111c <initialize_target+0x6c>
  401117:	b8 00 00 00 00       	mov    $0x0,%eax
  40111c:	01 c3                	add    %eax,%ebx
  40111e:	0f b7 db             	movzwl %bx,%ebx
  401121:	8d 04 dd 00 01 00 00 	lea    0x100(,%rbx,8),%eax
  401128:	89 c0                	mov    %eax,%eax
  40112a:	48 89 05 4f 33 20 00 	mov    %rax,0x20334f(%rip)        # 604480 <buf_offset>
  401131:	c6 05 d0 3f 20 00 63 	movb   $0x63,0x203fd0(%rip)        # 605108 <target_prefix>
  401138:	83 3d 49 33 20 00 00 	cmpl   $0x0,0x203349(%rip)        # 604488 <notify>
  40113f:	0f 84 b1 00 00 00    	je     4011f6 <initialize_target+0x146>
  401145:	83 3d 9c 33 20 00 00 	cmpl   $0x0,0x20339c(%rip)        # 6044e8 <is_checker>
  40114c:	0f 85 a4 00 00 00    	jne    4011f6 <initialize_target+0x146>
  401152:	be 00 01 00 00       	mov    $0x100,%esi
  401157:	48 89 e7             	mov    %rsp,%rdi
  40115a:	e8 81 fd ff ff       	callq  400ee0 <gethostname@plt>
  40115f:	85 c0                	test   %eax,%eax
  401161:	74 25                	je     401188 <initialize_target+0xd8>
  401163:	bf 68 2e 40 00       	mov    $0x402e68,%edi
  401168:	e8 03 fc ff ff       	callq  400d70 <puts@plt>
  40116d:	bf 08 00 00 00       	mov    $0x8,%edi
  401172:	e8 89 fd ff ff       	callq  400f00 <exit@plt>
  401177:	48 89 e6             	mov    %rsp,%rsi
  40117a:	e8 a1 fb ff ff       	callq  400d20 <strcasecmp@plt>
  40117f:	85 c0                	test   %eax,%eax
  401181:	74 21                	je     4011a4 <initialize_target+0xf4>
  401183:	83 c3 01             	add    $0x1,%ebx
  401186:	eb 05                	jmp    40118d <initialize_target+0xdd>
  401188:	bb 00 00 00 00       	mov    $0x0,%ebx
  40118d:	48 63 c3             	movslq %ebx,%rax
  401190:	48 8b 3c c5 60 41 60 	mov    0x604160(,%rax,8),%rdi
  401197:	00 
  401198:	48 85 ff             	test   %rdi,%rdi
  40119b:	75 da                	jne    401177 <initialize_target+0xc7>
  40119d:	b8 00 00 00 00       	mov    $0x0,%eax
  4011a2:	eb 05                	jmp    4011a9 <initialize_target+0xf9>
  4011a4:	b8 01 00 00 00       	mov    $0x1,%eax
  4011a9:	85 c0                	test   %eax,%eax
  4011ab:	75 17                	jne    4011c4 <initialize_target+0x114>
  4011ad:	48 89 e6             	mov    %rsp,%rsi
  4011b0:	bf a0 2e 40 00       	mov    $0x402ea0,%edi
  4011b5:	e8 e6 fb ff ff       	callq  400da0 <printf@plt>
  4011ba:	bf 08 00 00 00       	mov    $0x8,%edi
  4011bf:	e8 3c fd ff ff       	callq  400f00 <exit@plt>
  4011c4:	48 8d bc 24 00 01 00 	lea    0x100(%rsp),%rdi
  4011cb:	00 
  4011cc:	e8 a5 18 00 00       	callq  402a76 <init_driver>
  4011d1:	85 c0                	test   %eax,%eax
  4011d3:	79 21                	jns    4011f6 <initialize_target+0x146>
  4011d5:	48 8d b4 24 00 01 00 	lea    0x100(%rsp),%rsi
  4011dc:	00 
  4011dd:	bf e0 2e 40 00       	mov    $0x402ee0,%edi
  4011e2:	b8 00 00 00 00       	mov    $0x0,%eax
  4011e7:	e8 b4 fb ff ff       	callq  400da0 <printf@plt>
  4011ec:	bf 08 00 00 00       	mov    $0x8,%edi
  4011f1:	e8 0a fd ff ff       	callq  400f00 <exit@plt>
  4011f6:	48 81 c4 08 21 00 00 	add    $0x2108,%rsp
  4011fd:	5b                   	pop    %rbx
  4011fe:	5d                   	pop    %rbp
  4011ff:	c3                   	retq   

0000000000401200 <main>:
  401200:	41 56                	push   %r14
  401202:	41 55                	push   %r13
  401204:	41 54                	push   %r12
  401206:	55                   	push   %rbp
  401207:	53                   	push   %rbx
  401208:	41 89 fc             	mov    %edi,%r12d
  40120b:	48 89 f3             	mov    %rsi,%rbx
  40120e:	be 71 1e 40 00       	mov    $0x401e71,%esi
  401213:	bf 0b 00 00 00       	mov    $0xb,%edi
  401218:	e8 e3 fb ff ff       	callq  400e00 <signal@plt>
  40121d:	be 23 1e 40 00       	mov    $0x401e23,%esi
  401222:	bf 07 00 00 00       	mov    $0x7,%edi
  401227:	e8 d4 fb ff ff       	callq  400e00 <signal@plt>
  40122c:	be bf 1e 40 00       	mov    $0x401ebf,%esi
  401231:	bf 04 00 00 00       	mov    $0x4,%edi
  401236:	e8 c5 fb ff ff       	callq  400e00 <signal@plt>
  40123b:	83 3d a6 32 20 00 00 	cmpl   $0x0,0x2032a6(%rip)        # 6044e8 <is_checker>
  401242:	74 20                	je     401264 <main+0x64>
  401244:	be 0d 1f 40 00       	mov    $0x401f0d,%esi
  401249:	bf 0e 00 00 00       	mov    $0xe,%edi
  40124e:	e8 ad fb ff ff       	callq  400e00 <signal@plt>
  401253:	bf 05 00 00 00       	mov    $0x5,%edi
  401258:	e8 63 fb ff ff       	callq  400dc0 <alarm@plt>
  40125d:	bd aa 2f 40 00       	mov    $0x402faa,%ebp
  401262:	eb 05                	jmp    401269 <main+0x69>
  401264:	bd a5 2f 40 00       	mov    $0x402fa5,%ebp
  401269:	48 8b 05 30 32 20 00 	mov    0x203230(%rip),%rax        # 6044a0 <stdin@@GLIBC_2.2.5>
  401270:	48 89 05 59 32 20 00 	mov    %rax,0x203259(%rip)        # 6044d0 <infile>
  401277:	41 bd 00 00 00 00    	mov    $0x0,%r13d
  40127d:	41 be 00 00 00 00    	mov    $0x0,%r14d
  401283:	e9 b9 00 00 00       	jmpq   401341 <main+0x141>
  401288:	83 e8 61             	sub    $0x61,%eax
  40128b:	3c 10                	cmp    $0x10,%al
  40128d:	0f 87 93 00 00 00    	ja     401326 <main+0x126>
  401293:	0f b6 c0             	movzbl %al,%eax
  401296:	ff 24 c5 f0 2f 40 00 	jmpq   *0x402ff0(,%rax,8)
  40129d:	48 8b 3b             	mov    (%rbx),%rdi
  4012a0:	e8 8b fd ff ff       	callq  401030 <usage>
  4012a5:	be 4d 32 40 00       	mov    $0x40324d,%esi
  4012aa:	48 8b 3d f7 31 20 00 	mov    0x2031f7(%rip),%rdi        # 6044a8 <optarg@@GLIBC_2.2.5>
  4012b1:	e8 fa fb ff ff       	callq  400eb0 <fopen@plt>
  4012b6:	48 89 05 13 32 20 00 	mov    %rax,0x203213(%rip)        # 6044d0 <infile>
  4012bd:	48 85 c0             	test   %rax,%rax
  4012c0:	75 7f                	jne    401341 <main+0x141>
  4012c2:	48 8b 15 df 31 20 00 	mov    0x2031df(%rip),%rdx        # 6044a8 <optarg@@GLIBC_2.2.5>
  4012c9:	be b2 2f 40 00       	mov    $0x402fb2,%esi
  4012ce:	48 8b 3d db 31 20 00 	mov    0x2031db(%rip),%rdi        # 6044b0 <stderr@@GLIBC_2.2.5>
  4012d5:	e8 46 fb ff ff       	callq  400e20 <fprintf@plt>
  4012da:	b8 01 00 00 00       	mov    $0x1,%eax
  4012df:	e9 d6 00 00 00       	jmpq   4013ba <main+0x1ba>
  4012e4:	ba 10 00 00 00       	mov    $0x10,%edx
  4012e9:	be 00 00 00 00       	mov    $0x0,%esi
  4012ee:	48 8b 3d b3 31 20 00 	mov    0x2031b3(%rip),%rdi        # 6044a8 <optarg@@GLIBC_2.2.5>
  4012f5:	e8 d6 fb ff ff       	callq  400ed0 <strtoul@plt>
  4012fa:	41 89 c6             	mov    %eax,%r14d
  4012fd:	eb 42                	jmp    401341 <main+0x141>
  4012ff:	ba 0a 00 00 00       	mov    $0xa,%edx
  401304:	be 00 00 00 00       	mov    $0x0,%esi
  401309:	48 8b 3d 98 31 20 00 	mov    0x203198(%rip),%rdi        # 6044a8 <optarg@@GLIBC_2.2.5>
  401310:	e8 1b fb ff ff       	callq  400e30 <strtol@plt>
  401315:	41 89 c5             	mov    %eax,%r13d
  401318:	eb 27                	jmp    401341 <main+0x141>
  40131a:	c7 05 64 31 20 00 00 	movl   $0x0,0x203164(%rip)        # 604488 <notify>
  401321:	00 00 00 
  401324:	eb 1b                	jmp    401341 <main+0x141>
  401326:	40 0f be f6          	movsbl %sil,%esi
  40132a:	bf cf 2f 40 00       	mov    $0x402fcf,%edi
  40132f:	b8 00 00 00 00       	mov    $0x0,%eax
  401334:	e8 67 fa ff ff       	callq  400da0 <printf@plt>
  401339:	48 8b 3b             	mov    (%rbx),%rdi
  40133c:	e8 ef fc ff ff       	callq  401030 <usage>
  401341:	48 89 ea             	mov    %rbp,%rdx
  401344:	48 89 de             	mov    %rbx,%rsi
  401347:	44 89 e7             	mov    %r12d,%edi
  40134a:	e8 71 fb ff ff       	callq  400ec0 <getopt@plt>
  40134f:	89 c6                	mov    %eax,%esi
  401351:	3c ff                	cmp    $0xff,%al
  401353:	0f 85 2f ff ff ff    	jne    401288 <main+0x88>
  401359:	be 00 00 00 00       	mov    $0x0,%esi
  40135e:	44 89 ef             	mov    %r13d,%edi
  401361:	e8 4a fd ff ff       	callq  4010b0 <initialize_target>
  401366:	83 3d 7b 31 20 00 00 	cmpl   $0x0,0x20317b(%rip)        # 6044e8 <is_checker>
  40136d:	74 25                	je     401394 <main+0x194>
  40136f:	44 3b 35 6a 31 20 00 	cmp    0x20316a(%rip),%r14d        # 6044e0 <authkey>
  401376:	74 1c                	je     401394 <main+0x194>
  401378:	44 89 f6             	mov    %r14d,%esi
  40137b:	bf 08 2f 40 00       	mov    $0x402f08,%edi
  401380:	b8 00 00 00 00       	mov    $0x0,%eax
  401385:	e8 16 fa ff ff       	callq  400da0 <printf@plt>
  40138a:	b8 00 00 00 00       	mov    $0x0,%eax
  40138f:	e8 97 07 00 00       	callq  401b2b <check_fail>
  401394:	8b 35 4a 31 20 00    	mov    0x20314a(%rip),%esi        # 6044e4 <cookie>
  40139a:	bf e2 2f 40 00       	mov    $0x402fe2,%edi
  40139f:	b8 00 00 00 00       	mov    $0x0,%eax
  4013a4:	e8 f7 f9 ff ff       	callq  400da0 <printf@plt>
  4013a9:	48 8b 3d d0 30 20 00 	mov    0x2030d0(%rip),%rdi        # 604480 <buf_offset>
  4013b0:	e8 27 0c 00 00       	callq  401fdc <stable_launch>
  4013b5:	b8 00 00 00 00       	mov    $0x0,%eax
  4013ba:	5b                   	pop    %rbx
  4013bb:	5d                   	pop    %rbp
  4013bc:	41 5c                	pop    %r12
  4013be:	41 5d                	pop    %r13
  4013c0:	41 5e                	pop    %r14
  4013c2:	c3                   	retq   

00000000004013c3 <scramble>:
  4013c3:	b8 00 00 00 00       	mov    $0x0,%eax
  4013c8:	eb 11                	jmp    4013db <scramble+0x18>
  4013ca:	69 c8 74 9a 00 00    	imul   $0x9a74,%eax,%ecx
  4013d0:	01 f9                	add    %edi,%ecx
  4013d2:	89 c2                	mov    %eax,%edx
  4013d4:	89 4c 94 d0          	mov    %ecx,-0x30(%rsp,%rdx,4)
  4013d8:	83 c0 01             	add    $0x1,%eax
  4013db:	83 f8 09             	cmp    $0x9,%eax
  4013de:	76 ea                	jbe    4013ca <scramble+0x7>
  4013e0:	8b 44 24 dc          	mov    -0x24(%rsp),%eax
  4013e4:	69 c0 8f 5e 00 00    	imul   $0x5e8f,%eax,%eax
  4013ea:	89 44 24 dc          	mov    %eax,-0x24(%rsp)
  4013ee:	8b 44 24 e0          	mov    -0x20(%rsp),%eax
  4013f2:	69 c0 fa 67 00 00    	imul   $0x67fa,%eax,%eax
  4013f8:	89 44 24 e0          	mov    %eax,-0x20(%rsp)
  4013fc:	8b 44 24 d8          	mov    -0x28(%rsp),%eax
  401400:	69 c0 af 9a 00 00    	imul   $0x9aaf,%eax,%eax
  401406:	89 44 24 d8          	mov    %eax,-0x28(%rsp)
  40140a:	8b 44 24 e0          	mov    -0x20(%rsp),%eax
  40140e:	69 c0 12 1b 00 00    	imul   $0x1b12,%eax,%eax
  401414:	89 44 24 e0          	mov    %eax,-0x20(%rsp)
  401418:	8b 44 24 dc          	mov    -0x24(%rsp),%eax
  40141c:	69 c0 99 8f 00 00    	imul   $0x8f99,%eax,%eax
  401422:	89 44 24 dc          	mov    %eax,-0x24(%rsp)
  401426:	8b 44 24 d4          	mov    -0x2c(%rsp),%eax
  40142a:	69 c0 61 14 00 00    	imul   $0x1461,%eax,%eax
  401430:	89 44 24 d4          	mov    %eax,-0x2c(%rsp)
  401434:	8b 44 24 d8          	mov    -0x28(%rsp),%eax
  401438:	69 c0 90 cf 00 00    	imul   $0xcf90,%eax,%eax
  40143e:	89 44 24 d8          	mov    %eax,-0x28(%rsp)
  401442:	8b 44 24 d0          	mov    -0x30(%rsp),%eax
  401446:	69 c0 67 f0 00 00    	imul   $0xf067,%eax,%eax
  40144c:	89 44 24 d0          	mov    %eax,-0x30(%rsp)
  401450:	8b 44 24 e8          	mov    -0x18(%rsp),%eax
  401454:	69 c0 73 c7 00 00    	imul   $0xc773,%eax,%eax
  40145a:	89 44 24 e8          	mov    %eax,-0x18(%rsp)
  40145e:	8b 44 24 f0          	mov    -0x10(%rsp),%eax
  401462:	69 c0 0f 26 00 00    	imul   $0x260f,%eax,%eax
  401468:	89 44 24 f0          	mov    %eax,-0x10(%rsp)
  40146c:	8b 44 24 e8          	mov    -0x18(%rsp),%eax
  401470:	69 c0 84 5a 00 00    	imul   $0x5a84,%eax,%eax
  401476:	89 44 24 e8          	mov    %eax,-0x18(%rsp)
  40147a:	8b 44 24 d4          	mov    -0x2c(%rsp),%eax
  40147e:	69 c0 e0 34 00 00    	imul   $0x34e0,%eax,%eax
  401484:	89 44 24 d4          	mov    %eax,-0x2c(%rsp)
  401488:	8b 44 24 f0          	mov    -0x10(%rsp),%eax
  40148c:	69 c0 62 3c 00 00    	imul   $0x3c62,%eax,%eax
  401492:	89 44 24 f0          	mov    %eax,-0x10(%rsp)
  401496:	8b 44 24 e0          	mov    -0x20(%rsp),%eax
  40149a:	69 c0 88 90 00 00    	imul   $0x9088,%eax,%eax
  4014a0:	89 44 24 e0          	mov    %eax,-0x20(%rsp)
  4014a4:	8b 44 24 f0          	mov    -0x10(%rsp),%eax
  4014a8:	69 c0 59 1a 00 00    	imul   $0x1a59,%eax,%eax
  4014ae:	89 44 24 f0          	mov    %eax,-0x10(%rsp)
  4014b2:	8b 44 24 f0          	mov    -0x10(%rsp),%eax
  4014b6:	69 c0 35 b2 00 00    	imul   $0xb235,%eax,%eax
  4014bc:	89 44 24 f0          	mov    %eax,-0x10(%rsp)
  4014c0:	8b 44 24 ec          	mov    -0x14(%rsp),%eax
  4014c4:	69 c0 cb d8 00 00    	imul   $0xd8cb,%eax,%eax
  4014ca:	89 44 24 ec          	mov    %eax,-0x14(%rsp)
  4014ce:	8b 44 24 f0          	mov    -0x10(%rsp),%eax
  4014d2:	69 c0 ab ad 00 00    	imul   $0xadab,%eax,%eax
  4014d8:	89 44 24 f0          	mov    %eax,-0x10(%rsp)
  4014dc:	8b 44 24 d4          	mov    -0x2c(%rsp),%eax
  4014e0:	69 c0 40 61 00 00    	imul   $0x6140,%eax,%eax
  4014e6:	89 44 24 d4          	mov    %eax,-0x2c(%rsp)
  4014ea:	8b 44 24 f4          	mov    -0xc(%rsp),%eax
  4014ee:	69 c0 fe f6 00 00    	imul   $0xf6fe,%eax,%eax
  4014f4:	89 44 24 f4          	mov    %eax,-0xc(%rsp)
  4014f8:	8b 44 24 dc          	mov    -0x24(%rsp),%eax
  4014fc:	69 c0 3b 58 00 00    	imul   $0x583b,%eax,%eax
  401502:	89 44 24 dc          	mov    %eax,-0x24(%rsp)
  401506:	8b 44 24 dc          	mov    -0x24(%rsp),%eax
  40150a:	69 c0 c2 f3 00 00    	imul   $0xf3c2,%eax,%eax
  401510:	89 44 24 dc          	mov    %eax,-0x24(%rsp)
  401514:	8b 44 24 e4          	mov    -0x1c(%rsp),%eax
  401518:	69 c0 fa 5a 00 00    	imul   $0x5afa,%eax,%eax
  40151e:	89 44 24 e4          	mov    %eax,-0x1c(%rsp)
  401522:	8b 44 24 dc          	mov    -0x24(%rsp),%eax
  401526:	69 c0 de 8f 00 00    	imul   $0x8fde,%eax,%eax
  40152c:	89 44 24 dc          	mov    %eax,-0x24(%rsp)
  401530:	8b 44 24 e4          	mov    -0x1c(%rsp),%eax
  401534:	69 c0 f8 a9 00 00    	imul   $0xa9f8,%eax,%eax
  40153a:	89 44 24 e4          	mov    %eax,-0x1c(%rsp)
  40153e:	8b 44 24 d8          	mov    -0x28(%rsp),%eax
  401542:	69 c0 cf 1f 00 00    	imul   $0x1fcf,%eax,%eax
  401548:	89 44 24 d8          	mov    %eax,-0x28(%rsp)
  40154c:	8b 44 24 f4          	mov    -0xc(%rsp),%eax
  401550:	69 c0 29 47 00 00    	imul   $0x4729,%eax,%eax
  401556:	89 44 24 f4          	mov    %eax,-0xc(%rsp)
  40155a:	8b 44 24 e4          	mov    -0x1c(%rsp),%eax
  40155e:	69 c0 7d 68 00 00    	imul   $0x687d,%eax,%eax
  401564:	89 44 24 e4          	mov    %eax,-0x1c(%rsp)
  401568:	8b 44 24 f4          	mov    -0xc(%rsp),%eax
  40156c:	69 c0 be 9a 00 00    	imul   $0x9abe,%eax,%eax
  401572:	89 44 24 f4          	mov    %eax,-0xc(%rsp)
  401576:	8b 44 24 ec          	mov    -0x14(%rsp),%eax
  40157a:	69 c0 4c 9b 00 00    	imul   $0x9b4c,%eax,%eax
  401580:	89 44 24 ec          	mov    %eax,-0x14(%rsp)
  401584:	8b 44 24 d4          	mov    -0x2c(%rsp),%eax
  401588:	69 c0 27 3c 00 00    	imul   $0x3c27,%eax,%eax
  40158e:	89 44 24 d4          	mov    %eax,-0x2c(%rsp)
  401592:	8b 44 24 e0          	mov    -0x20(%rsp),%eax
  401596:	69 c0 00 2e 00 00    	imul   $0x2e00,%eax,%eax
  40159c:	89 44 24 e0          	mov    %eax,-0x20(%rsp)
  4015a0:	8b 44 24 dc          	mov    -0x24(%rsp),%eax
  4015a4:	69 c0 b0 67 00 00    	imul   $0x67b0,%eax,%eax
  4015aa:	89 44 24 dc          	mov    %eax,-0x24(%rsp)
  4015ae:	8b 44 24 f0          	mov    -0x10(%rsp),%eax
  4015b2:	69 c0 6c 88 00 00    	imul   $0x886c,%eax,%eax
  4015b8:	89 44 24 f0          	mov    %eax,-0x10(%rsp)
  4015bc:	8b 44 24 f4          	mov    -0xc(%rsp),%eax
  4015c0:	69 c0 68 a4 00 00    	imul   $0xa468,%eax,%eax
  4015c6:	89 44 24 f4          	mov    %eax,-0xc(%rsp)
  4015ca:	8b 44 24 f4          	mov    -0xc(%rsp),%eax
  4015ce:	69 c0 ca b9 00 00    	imul   $0xb9ca,%eax,%eax
  4015d4:	89 44 24 f4          	mov    %eax,-0xc(%rsp)
  4015d8:	8b 44 24 d8          	mov    -0x28(%rsp),%eax
  4015dc:	69 c0 ca 8a 00 00    	imul   $0x8aca,%eax,%eax
  4015e2:	89 44 24 d8          	mov    %eax,-0x28(%rsp)
  4015e6:	8b 44 24 d8          	mov    -0x28(%rsp),%eax
  4015ea:	69 c0 6f 24 00 00    	imul   $0x246f,%eax,%eax
  4015f0:	89 44 24 d8          	mov    %eax,-0x28(%rsp)
  4015f4:	8b 44 24 d4          	mov    -0x2c(%rsp),%eax
  4015f8:	69 c0 b6 91 00 00    	imul   $0x91b6,%eax,%eax
  4015fe:	89 44 24 d4          	mov    %eax,-0x2c(%rsp)
  401602:	8b 44 24 e0          	mov    -0x20(%rsp),%eax
  401606:	69 c0 31 08 00 00    	imul   $0x831,%eax,%eax
  40160c:	89 44 24 e0          	mov    %eax,-0x20(%rsp)
  401610:	8b 44 24 f0          	mov    -0x10(%rsp),%eax
  401614:	69 c0 3a 6a 00 00    	imul   $0x6a3a,%eax,%eax
  40161a:	89 44 24 f0          	mov    %eax,-0x10(%rsp)
  40161e:	8b 44 24 d4          	mov    -0x2c(%rsp),%eax
  401622:	69 c0 2a 40 00 00    	imul   $0x402a,%eax,%eax
  401628:	89 44 24 d4          	mov    %eax,-0x2c(%rsp)
  40162c:	8b 44 24 e4          	mov    -0x1c(%rsp),%eax
  401630:	69 c0 b0 7c 00 00    	imul   $0x7cb0,%eax,%eax
  401636:	89 44 24 e4          	mov    %eax,-0x1c(%rsp)
  40163a:	8b 44 24 f0          	mov    -0x10(%rsp),%eax
  40163e:	69 c0 ee 34 00 00    	imul   $0x34ee,%eax,%eax
  401644:	89 44 24 f0          	mov    %eax,-0x10(%rsp)
  401648:	8b 44 24 f0          	mov    -0x10(%rsp),%eax
  40164c:	69 c0 ac a1 00 00    	imul   $0xa1ac,%eax,%eax
  401652:	89 44 24 f0          	mov    %eax,-0x10(%rsp)
  401656:	8b 44 24 e8          	mov    -0x18(%rsp),%eax
  40165a:	69 c0 85 cc 00 00    	imul   $0xcc85,%eax,%eax
  401660:	89 44 24 e8          	mov    %eax,-0x18(%rsp)
  401664:	8b 44 24 e4          	mov    -0x1c(%rsp),%eax
  401668:	69 c0 bb 1d 00 00    	imul   $0x1dbb,%eax,%eax
  40166e:	89 44 24 e4          	mov    %eax,-0x1c(%rsp)
  401672:	8b 44 24 d0          	mov    -0x30(%rsp),%eax
  401676:	69 c0 c6 f2 00 00    	imul   $0xf2c6,%eax,%eax
  40167c:	89 44 24 d0          	mov    %eax,-0x30(%rsp)
  401680:	8b 44 24 ec          	mov    -0x14(%rsp),%eax
  401684:	69 c0 30 d6 00 00    	imul   $0xd630,%eax,%eax
  40168a:	89 44 24 ec          	mov    %eax,-0x14(%rsp)
  40168e:	8b 44 24 dc          	mov    -0x24(%rsp),%eax
  401692:	69 c0 5c 4e 00 00    	imul   $0x4e5c,%eax,%eax
  401698:	89 44 24 dc          	mov    %eax,-0x24(%rsp)
  40169c:	8b 44 24 f0          	mov    -0x10(%rsp),%eax
  4016a0:	69 c0 9e fa 00 00    	imul   $0xfa9e,%eax,%eax
  4016a6:	89 44 24 f0          	mov    %eax,-0x10(%rsp)
  4016aa:	8b 44 24 d8          	mov    -0x28(%rsp),%eax
  4016ae:	69 c0 3c 77 00 00    	imul   $0x773c,%eax,%eax
  4016b4:	89 44 24 d8          	mov    %eax,-0x28(%rsp)
  4016b8:	8b 44 24 f4          	mov    -0xc(%rsp),%eax
  4016bc:	69 c0 b3 b5 00 00    	imul   $0xb5b3,%eax,%eax
  4016c2:	89 44 24 f4          	mov    %eax,-0xc(%rsp)
  4016c6:	8b 44 24 d4          	mov    -0x2c(%rsp),%eax
  4016ca:	69 c0 2d 6b 00 00    	imul   $0x6b2d,%eax,%eax
  4016d0:	89 44 24 d4          	mov    %eax,-0x2c(%rsp)
  4016d4:	8b 44 24 e0          	mov    -0x20(%rsp),%eax
  4016d8:	69 c0 f8 4f 00 00    	imul   $0x4ff8,%eax,%eax
  4016de:	89 44 24 e0          	mov    %eax,-0x20(%rsp)
  4016e2:	8b 44 24 d0          	mov    -0x30(%rsp),%eax
  4016e6:	69 c0 17 83 00 00    	imul   $0x8317,%eax,%eax
  4016ec:	89 44 24 d0          	mov    %eax,-0x30(%rsp)
  4016f0:	8b 44 24 e4          	mov    -0x1c(%rsp),%eax
  4016f4:	69 c0 5f 9b 00 00    	imul   $0x9b5f,%eax,%eax
  4016fa:	89 44 24 e4          	mov    %eax,-0x1c(%rsp)
  4016fe:	8b 44 24 e4          	mov    -0x1c(%rsp),%eax
  401702:	69 c0 95 6b 00 00    	imul   $0x6b95,%eax,%eax
  401708:	89 44 24 e4          	mov    %eax,-0x1c(%rsp)
  40170c:	8b 44 24 d0          	mov    -0x30(%rsp),%eax
  401710:	69 c0 e8 6b 00 00    	imul   $0x6be8,%eax,%eax
  401716:	89 44 24 d0          	mov    %eax,-0x30(%rsp)
  40171a:	8b 44 24 e8          	mov    -0x18(%rsp),%eax
  40171e:	69 c0 7d 2f 00 00    	imul   $0x2f7d,%eax,%eax
  401724:	89 44 24 e8          	mov    %eax,-0x18(%rsp)
  401728:	8b 44 24 d8          	mov    -0x28(%rsp),%eax
  40172c:	69 c0 be 70 00 00    	imul   $0x70be,%eax,%eax
  401732:	89 44 24 d8          	mov    %eax,-0x28(%rsp)
  401736:	8b 44 24 d8          	mov    -0x28(%rsp),%eax
  40173a:	69 c0 68 eb 00 00    	imul   $0xeb68,%eax,%eax
  401740:	89 44 24 d8          	mov    %eax,-0x28(%rsp)
  401744:	8b 44 24 ec          	mov    -0x14(%rsp),%eax
  401748:	69 c0 88 f6 00 00    	imul   $0xf688,%eax,%eax
  40174e:	89 44 24 ec          	mov    %eax,-0x14(%rsp)
  401752:	8b 44 24 f0          	mov    -0x10(%rsp),%eax
  401756:	69 c0 e6 13 00 00    	imul   $0x13e6,%eax,%eax
  40175c:	89 44 24 f0          	mov    %eax,-0x10(%rsp)
  401760:	8b 44 24 d8          	mov    -0x28(%rsp),%eax
  401764:	69 c0 62 59 00 00    	imul   $0x5962,%eax,%eax
  40176a:	89 44 24 d8          	mov    %eax,-0x28(%rsp)
  40176e:	8b 44 24 d8          	mov    -0x28(%rsp),%eax
  401772:	69 c0 51 47 00 00    	imul   $0x4751,%eax,%eax
  401778:	89 44 24 d8          	mov    %eax,-0x28(%rsp)
  40177c:	8b 44 24 f0          	mov    -0x10(%rsp),%eax
  401780:	69 c0 69 6a 00 00    	imul   $0x6a69,%eax,%eax
  401786:	89 44 24 f0          	mov    %eax,-0x10(%rsp)
  40178a:	8b 44 24 e8          	mov    -0x18(%rsp),%eax
  40178e:	69 c0 68 d9 00 00    	imul   $0xd968,%eax,%eax
  401794:	89 44 24 e8          	mov    %eax,-0x18(%rsp)
  401798:	8b 44 24 dc          	mov    -0x24(%rsp),%eax
  40179c:	69 c0 39 5a 00 00    	imul   $0x5a39,%eax,%eax
  4017a2:	89 44 24 dc          	mov    %eax,-0x24(%rsp)
  4017a6:	8b 44 24 d0          	mov    -0x30(%rsp),%eax
  4017aa:	69 c0 85 67 00 00    	imul   $0x6785,%eax,%eax
  4017b0:	89 44 24 d0          	mov    %eax,-0x30(%rsp)
  4017b4:	8b 44 24 e8          	mov    -0x18(%rsp),%eax
  4017b8:	69 c0 f4 b7 00 00    	imul   $0xb7f4,%eax,%eax
  4017be:	89 44 24 e8          	mov    %eax,-0x18(%rsp)
  4017c2:	8b 44 24 dc          	mov    -0x24(%rsp),%eax
  4017c6:	69 c0 64 64 00 00    	imul   $0x6464,%eax,%eax
  4017cc:	89 44 24 dc          	mov    %eax,-0x24(%rsp)
  4017d0:	8b 44 24 e0          	mov    -0x20(%rsp),%eax
  4017d4:	69 c0 dd ad 00 00    	imul   $0xaddd,%eax,%eax
  4017da:	89 44 24 e0          	mov    %eax,-0x20(%rsp)
  4017de:	8b 44 24 dc          	mov    -0x24(%rsp),%eax
  4017e2:	69 c0 62 6b 00 00    	imul   $0x6b62,%eax,%eax
  4017e8:	89 44 24 dc          	mov    %eax,-0x24(%rsp)
  4017ec:	8b 44 24 dc          	mov    -0x24(%rsp),%eax
  4017f0:	69 c0 7e 70 00 00    	imul   $0x707e,%eax,%eax
  4017f6:	89 44 24 dc          	mov    %eax,-0x24(%rsp)
  4017fa:	8b 44 24 e8          	mov    -0x18(%rsp),%eax
  4017fe:	69 c0 59 27 00 00    	imul   $0x2759,%eax,%eax
  401804:	89 44 24 e8          	mov    %eax,-0x18(%rsp)
  401808:	8b 44 24 e8          	mov    -0x18(%rsp),%eax
  40180c:	69 c0 e1 96 00 00    	imul   $0x96e1,%eax,%eax
  401812:	89 44 24 e8          	mov    %eax,-0x18(%rsp)
  401816:	8b 44 24 e4          	mov    -0x1c(%rsp),%eax
  40181a:	69 c0 b6 6f 00 00    	imul   $0x6fb6,%eax,%eax
  401820:	89 44 24 e4          	mov    %eax,-0x1c(%rsp)
  401824:	8b 44 24 d8          	mov    -0x28(%rsp),%eax
  401828:	69 c0 f1 f0 00 00    	imul   $0xf0f1,%eax,%eax
  40182e:	89 44 24 d8          	mov    %eax,-0x28(%rsp)
  401832:	8b 44 24 d4          	mov    -0x2c(%rsp),%eax
  401836:	69 c0 22 5a 00 00    	imul   $0x5a22,%eax,%eax
  40183c:	89 44 24 d4          	mov    %eax,-0x2c(%rsp)
  401840:	8b 44 24 f4          	mov    -0xc(%rsp),%eax
  401844:	69 c0 df e5 00 00    	imul   $0xe5df,%eax,%eax
  40184a:	89 44 24 f4          	mov    %eax,-0xc(%rsp)
  40184e:	8b 44 24 d0          	mov    -0x30(%rsp),%eax
  401852:	69 c0 53 9e 00 00    	imul   $0x9e53,%eax,%eax
  401858:	89 44 24 d0          	mov    %eax,-0x30(%rsp)
  40185c:	8b 44 24 d4          	mov    -0x2c(%rsp),%eax
  401860:	69 c0 01 60 00 00    	imul   $0x6001,%eax,%eax
  401866:	89 44 24 d4          	mov    %eax,-0x2c(%rsp)
  40186a:	8b 44 24 ec          	mov    -0x14(%rsp),%eax
  40186e:	69 c0 64 70 00 00    	imul   $0x7064,%eax,%eax
  401874:	89 44 24 ec          	mov    %eax,-0x14(%rsp)
  401878:	8b 44 24 e4          	mov    -0x1c(%rsp),%eax
  40187c:	69 c0 51 bc 00 00    	imul   $0xbc51,%eax,%eax
  401882:	89 44 24 e4          	mov    %eax,-0x1c(%rsp)
  401886:	8b 44 24 dc          	mov    -0x24(%rsp),%eax
  40188a:	69 c0 6d 64 00 00    	imul   $0x646d,%eax,%eax
  401890:	89 44 24 dc          	mov    %eax,-0x24(%rsp)
  401894:	8b 44 24 f4          	mov    -0xc(%rsp),%eax
  401898:	69 c0 85 c2 00 00    	imul   $0xc285,%eax,%eax
  40189e:	89 44 24 f4          	mov    %eax,-0xc(%rsp)
  4018a2:	8b 44 24 e0          	mov    -0x20(%rsp),%eax
  4018a6:	69 c0 98 c7 00 00    	imul   $0xc798,%eax,%eax
  4018ac:	89 44 24 e0          	mov    %eax,-0x20(%rsp)
  4018b0:	8b 44 24 e8          	mov    -0x18(%rsp),%eax
  4018b4:	69 c0 cb 98 00 00    	imul   $0x98cb,%eax,%eax
  4018ba:	89 44 24 e8          	mov    %eax,-0x18(%rsp)
  4018be:	8b 44 24 f4          	mov    -0xc(%rsp),%eax
  4018c2:	69 c0 27 8a 00 00    	imul   $0x8a27,%eax,%eax
  4018c8:	89 44 24 f4          	mov    %eax,-0xc(%rsp)
  4018cc:	8b 44 24 d0          	mov    -0x30(%rsp),%eax
  4018d0:	69 c0 d9 cd 00 00    	imul   $0xcdd9,%eax,%eax
  4018d6:	89 44 24 d0          	mov    %eax,-0x30(%rsp)
  4018da:	8b 44 24 e8          	mov    -0x18(%rsp),%eax
  4018de:	69 c0 86 ea 00 00    	imul   $0xea86,%eax,%eax
  4018e4:	89 44 24 e8          	mov    %eax,-0x18(%rsp)
  4018e8:	8b 44 24 e8          	mov    -0x18(%rsp),%eax
  4018ec:	69 c0 42 c4 00 00    	imul   $0xc442,%eax,%eax
  4018f2:	89 44 24 e8          	mov    %eax,-0x18(%rsp)
  4018f6:	8b 44 24 dc          	mov    -0x24(%rsp),%eax
  4018fa:	69 c0 24 f2 00 00    	imul   $0xf224,%eax,%eax
  401900:	89 44 24 dc          	mov    %eax,-0x24(%rsp)
  401904:	ba 00 00 00 00       	mov    $0x0,%edx
  401909:	b8 00 00 00 00       	mov    $0x0,%eax
  40190e:	eb 0b                	jmp    40191b <scramble+0x558>
  401910:	89 d1                	mov    %edx,%ecx
  401912:	8b 4c 8c d0          	mov    -0x30(%rsp,%rcx,4),%ecx
  401916:	01 c8                	add    %ecx,%eax
  401918:	83 c2 01             	add    $0x1,%edx
  40191b:	83 fa 09             	cmp    $0x9,%edx
  40191e:	76 f0                	jbe    401910 <scramble+0x54d>
  401920:	f3 c3                	repz retq 

0000000000401922 <getbuf>:
  401922:	48 83 ec 38          	sub    $0x38,%rsp
  401926:	48 89 e7             	mov    %rsp,%rdi
  401929:	e8 2c 02 00 00       	callq  401b5a <Gets>
  40192e:	b8 01 00 00 00       	mov    $0x1,%eax
  401933:	48 83 c4 38          	add    $0x38,%rsp
  401937:	c3                   	retq   

0000000000401938 <touch1>:
  401938:	48 83 ec 08          	sub    $0x8,%rsp
  40193c:	c7 05 96 2b 20 00 01 	movl   $0x1,0x202b96(%rip)        # 6044dc <vlevel>
  401943:	00 00 00 
  401946:	bf 9f 30 40 00       	mov    $0x40309f,%edi
  40194b:	e8 20 f4 ff ff       	callq  400d70 <puts@plt>
  401950:	bf 01 00 00 00       	mov    $0x1,%edi
  401955:	e8 ef 03 00 00       	callq  401d49 <validate>
  40195a:	bf 00 00 00 00       	mov    $0x0,%edi
  40195f:	e8 9c f5 ff ff       	callq  400f00 <exit@plt>

0000000000401964 <touch2>:
  401964:	48 83 ec 08          	sub    $0x8,%rsp
  401968:	89 fe                	mov    %edi,%esi
  40196a:	c7 05 68 2b 20 00 02 	movl   $0x2,0x202b68(%rip)        # 6044dc <vlevel>
  401971:	00 00 00 
  401974:	3b 3d 6a 2b 20 00    	cmp    0x202b6a(%rip),%edi        # 6044e4 <cookie>
  40197a:	75 1b                	jne    401997 <touch2+0x33>
  40197c:	bf c8 30 40 00       	mov    $0x4030c8,%edi
  401981:	b8 00 00 00 00       	mov    $0x0,%eax
  401986:	e8 15 f4 ff ff       	callq  400da0 <printf@plt>
  40198b:	bf 02 00 00 00       	mov    $0x2,%edi
  401990:	e8 b4 03 00 00       	callq  401d49 <validate>
  401995:	eb 19                	jmp    4019b0 <touch2+0x4c>
  401997:	bf f0 30 40 00       	mov    $0x4030f0,%edi
  40199c:	b8 00 00 00 00       	mov    $0x0,%eax
  4019a1:	e8 fa f3 ff ff       	callq  400da0 <printf@plt>
  4019a6:	bf 02 00 00 00       	mov    $0x2,%edi
  4019ab:	e8 4b 04 00 00       	callq  401dfb <fail>
  4019b0:	bf 00 00 00 00       	mov    $0x0,%edi
  4019b5:	e8 46 f5 ff ff       	callq  400f00 <exit@plt>

00000000004019ba <hexmatch>:
  4019ba:	41 54                	push   %r12
  4019bc:	55                   	push   %rbp
  4019bd:	53                   	push   %rbx
  4019be:	48 83 ec 70          	sub    $0x70,%rsp
  4019c2:	41 89 fc             	mov    %edi,%r12d
  4019c5:	48 89 f5             	mov    %rsi,%rbp
  4019c8:	e8 93 f4 ff ff       	callq  400e60 <random@plt>
  4019cd:	48 89 c1             	mov    %rax,%rcx
  4019d0:	48 ba 0b d7 a3 70 3d 	movabs $0xa3d70a3d70a3d70b,%rdx
  4019d7:	0a d7 a3 
  4019da:	48 f7 ea             	imul   %rdx
  4019dd:	48 8d 04 0a          	lea    (%rdx,%rcx,1),%rax
  4019e1:	48 c1 f8 06          	sar    $0x6,%rax
  4019e5:	48 89 ce             	mov    %rcx,%rsi
  4019e8:	48 c1 fe 3f          	sar    $0x3f,%rsi
  4019ec:	48 29 f0             	sub    %rsi,%rax
  4019ef:	48 8d 04 80          	lea    (%rax,%rax,4),%rax
  4019f3:	48 8d 04 80          	lea    (%rax,%rax,4),%rax
  4019f7:	48 c1 e0 02          	shl    $0x2,%rax
  4019fb:	48 29 c1             	sub    %rax,%rcx
  4019fe:	48 8d 1c 0c          	lea    (%rsp,%rcx,1),%rbx
  401a02:	44 89 e2             	mov    %r12d,%edx
  401a05:	be bc 30 40 00       	mov    $0x4030bc,%esi
  401a0a:	48 89 df             	mov    %rbx,%rdi
  401a0d:	b8 00 00 00 00       	mov    $0x0,%eax
  401a12:	e8 d9 f4 ff ff       	callq  400ef0 <sprintf@plt>
  401a17:	ba 09 00 00 00       	mov    $0x9,%edx
  401a1c:	48 89 de             	mov    %rbx,%rsi
  401a1f:	48 89 ef             	mov    %rbp,%rdi
  401a22:	e8 29 f3 ff ff       	callq  400d50 <strncmp@plt>
  401a27:	85 c0                	test   %eax,%eax
  401a29:	0f 94 c0             	sete   %al
  401a2c:	0f b6 c0             	movzbl %al,%eax
  401a2f:	48 83 c4 70          	add    $0x70,%rsp
  401a33:	5b                   	pop    %rbx
  401a34:	5d                   	pop    %rbp
  401a35:	41 5c                	pop    %r12
  401a37:	c3                   	retq   

0000000000401a38 <touch3>:
  401a38:	53                   	push   %rbx
  401a39:	48 89 fb             	mov    %rdi,%rbx
  401a3c:	c7 05 96 2a 20 00 03 	movl   $0x3,0x202a96(%rip)        # 6044dc <vlevel>
  401a43:	00 00 00 
  401a46:	48 89 fe             	mov    %rdi,%rsi
  401a49:	8b 3d 95 2a 20 00    	mov    0x202a95(%rip),%edi        # 6044e4 <cookie>
  401a4f:	e8 66 ff ff ff       	callq  4019ba <hexmatch>
  401a54:	85 c0                	test   %eax,%eax
  401a56:	74 1e                	je     401a76 <touch3+0x3e>
  401a58:	48 89 de             	mov    %rbx,%rsi
  401a5b:	bf 18 31 40 00       	mov    $0x403118,%edi
  401a60:	b8 00 00 00 00       	mov    $0x0,%eax
  401a65:	e8 36 f3 ff ff       	callq  400da0 <printf@plt>
  401a6a:	bf 03 00 00 00       	mov    $0x3,%edi
  401a6f:	e8 d5 02 00 00       	callq  401d49 <validate>
  401a74:	eb 1c                	jmp    401a92 <touch3+0x5a>
  401a76:	48 89 de             	mov    %rbx,%rsi
  401a79:	bf 40 31 40 00       	mov    $0x403140,%edi
  401a7e:	b8 00 00 00 00       	mov    $0x0,%eax
  401a83:	e8 18 f3 ff ff       	callq  400da0 <printf@plt>
  401a88:	bf 03 00 00 00       	mov    $0x3,%edi
  401a8d:	e8 69 03 00 00       	callq  401dfb <fail>
  401a92:	bf 00 00 00 00       	mov    $0x0,%edi
  401a97:	e8 64 f4 ff ff       	callq  400f00 <exit@plt>

0000000000401a9c <test>:
  401a9c:	48 83 ec 08          	sub    $0x8,%rsp
  401aa0:	b8 00 00 00 00       	mov    $0x0,%eax
  401aa5:	e8 78 fe ff ff       	callq  401922 <getbuf>
  401aaa:	89 c6                	mov    %eax,%esi
  401aac:	bf 68 31 40 00       	mov    $0x403168,%edi
  401ab1:	b8 00 00 00 00       	mov    $0x0,%eax
  401ab6:	e8 e5 f2 ff ff       	callq  400da0 <printf@plt>
  401abb:	48 83 c4 08          	add    $0x8,%rsp
  401abf:	c3                   	retq   

0000000000401ac0 <save_char>:
  401ac0:	8b 05 3e 36 20 00    	mov    0x20363e(%rip),%eax        # 605104 <gets_cnt>
  401ac6:	3d ff 03 00 00       	cmp    $0x3ff,%eax
  401acb:	7f 49                	jg     401b16 <save_char+0x56>
  401acd:	8d 14 40             	lea    (%rax,%rax,2),%edx
  401ad0:	89 f9                	mov    %edi,%ecx
  401ad2:	c0 e9 04             	shr    $0x4,%cl
  401ad5:	83 e1 0f             	and    $0xf,%ecx
  401ad8:	0f b6 b1 90 34 40 00 	movzbl 0x403490(%rcx),%esi
  401adf:	48 63 ca             	movslq %edx,%rcx
  401ae2:	40 88 b1 00 45 60 00 	mov    %sil,0x604500(%rcx)
  401ae9:	8d 4a 01             	lea    0x1(%rdx),%ecx
  401aec:	83 e7 0f             	and    $0xf,%edi
  401aef:	0f b6 b7 90 34 40 00 	movzbl 0x403490(%rdi),%esi
  401af6:	48 63 c9             	movslq %ecx,%rcx
  401af9:	40 88 b1 00 45 60 00 	mov    %sil,0x604500(%rcx)
  401b00:	83 c2 02             	add    $0x2,%edx
  401b03:	48 63 d2             	movslq %edx,%rdx
  401b06:	c6 82 00 45 60 00 20 	movb   $0x20,0x604500(%rdx)
  401b0d:	83 c0 01             	add    $0x1,%eax
  401b10:	89 05 ee 35 20 00    	mov    %eax,0x2035ee(%rip)        # 605104 <gets_cnt>
  401b16:	f3 c3                	repz retq 

0000000000401b18 <save_term>:
  401b18:	8b 05 e6 35 20 00    	mov    0x2035e6(%rip),%eax        # 605104 <gets_cnt>
  401b1e:	8d 04 40             	lea    (%rax,%rax,2),%eax
  401b21:	48 98                	cltq   
  401b23:	c6 80 00 45 60 00 00 	movb   $0x0,0x604500(%rax)
  401b2a:	c3                   	retq   

0000000000401b2b <check_fail>:
  401b2b:	48 83 ec 08          	sub    $0x8,%rsp
  401b2f:	0f be 35 d2 35 20 00 	movsbl 0x2035d2(%rip),%esi        # 605108 <target_prefix>
  401b36:	b9 00 45 60 00       	mov    $0x604500,%ecx
  401b3b:	8b 15 97 29 20 00    	mov    0x202997(%rip),%edx        # 6044d8 <check_level>
  401b41:	bf 8b 31 40 00       	mov    $0x40318b,%edi
  401b46:	b8 00 00 00 00       	mov    $0x0,%eax
  401b4b:	e8 50 f2 ff ff       	callq  400da0 <printf@plt>
  401b50:	bf 01 00 00 00       	mov    $0x1,%edi
  401b55:	e8 a6 f3 ff ff       	callq  400f00 <exit@plt>

0000000000401b5a <Gets>:
  401b5a:	41 54                	push   %r12
  401b5c:	55                   	push   %rbp
  401b5d:	53                   	push   %rbx
  401b5e:	49 89 fc             	mov    %rdi,%r12
  401b61:	c7 05 99 35 20 00 00 	movl   $0x0,0x203599(%rip)        # 605104 <gets_cnt>
  401b68:	00 00 00 
  401b6b:	48 89 fb             	mov    %rdi,%rbx
  401b6e:	eb 11                	jmp    401b81 <Gets+0x27>
  401b70:	48 8d 6b 01          	lea    0x1(%rbx),%rbp
  401b74:	88 03                	mov    %al,(%rbx)
  401b76:	0f b6 f8             	movzbl %al,%edi
  401b79:	e8 42 ff ff ff       	callq  401ac0 <save_char>
  401b7e:	48 89 eb             	mov    %rbp,%rbx
  401b81:	48 8b 3d 48 29 20 00 	mov    0x202948(%rip),%rdi        # 6044d0 <infile>
  401b88:	e8 e3 f2 ff ff       	callq  400e70 <_IO_getc@plt>
  401b8d:	83 f8 ff             	cmp    $0xffffffff,%eax
  401b90:	74 05                	je     401b97 <Gets+0x3d>
  401b92:	83 f8 0a             	cmp    $0xa,%eax
  401b95:	75 d9                	jne    401b70 <Gets+0x16>
  401b97:	c6 03 00             	movb   $0x0,(%rbx)
  401b9a:	b8 00 00 00 00       	mov    $0x0,%eax
  401b9f:	e8 74 ff ff ff       	callq  401b18 <save_term>
  401ba4:	4c 89 e0             	mov    %r12,%rax
  401ba7:	5b                   	pop    %rbx
  401ba8:	5d                   	pop    %rbp
  401ba9:	41 5c                	pop    %r12
  401bab:	c3                   	retq   

0000000000401bac <notify_server>:
  401bac:	83 3d 35 29 20 00 00 	cmpl   $0x0,0x202935(%rip)        # 6044e8 <is_checker>
  401bb3:	0f 85 8e 01 00 00    	jne    401d47 <notify_server+0x19b>
  401bb9:	53                   	push   %rbx
  401bba:	48 81 ec 10 40 00 00 	sub    $0x4010,%rsp
  401bc1:	89 fb                	mov    %edi,%ebx
  401bc3:	8b 05 3b 35 20 00    	mov    0x20353b(%rip),%eax        # 605104 <gets_cnt>
  401bc9:	83 c0 64             	add    $0x64,%eax
  401bcc:	3d 00 20 00 00       	cmp    $0x2000,%eax
  401bd1:	7e 19                	jle    401bec <notify_server+0x40>
  401bd3:	bf c0 32 40 00       	mov    $0x4032c0,%edi
  401bd8:	b8 00 00 00 00       	mov    $0x0,%eax
  401bdd:	e8 be f1 ff ff       	callq  400da0 <printf@plt>
  401be2:	bf 01 00 00 00       	mov    $0x1,%edi
  401be7:	e8 14 f3 ff ff       	callq  400f00 <exit@plt>
  401bec:	44 0f be 0d 14 35 20 	movsbl 0x203514(%rip),%r9d        # 605108 <target_prefix>
  401bf3:	00 
  401bf4:	83 3d 8d 28 20 00 00 	cmpl   $0x0,0x20288d(%rip)        # 604488 <notify>
  401bfb:	74 09                	je     401c06 <notify_server+0x5a>
  401bfd:	44 8b 05 dc 28 20 00 	mov    0x2028dc(%rip),%r8d        # 6044e0 <authkey>
  401c04:	eb 06                	jmp    401c0c <notify_server+0x60>
  401c06:	41 b8 ff ff ff ff    	mov    $0xffffffff,%r8d
  401c0c:	85 db                	test   %ebx,%ebx
  401c0e:	74 07                	je     401c17 <notify_server+0x6b>
  401c10:	b9 a1 31 40 00       	mov    $0x4031a1,%ecx
  401c15:	eb 05                	jmp    401c1c <notify_server+0x70>
  401c17:	b9 a6 31 40 00       	mov    $0x4031a6,%ecx
  401c1c:	48 c7 44 24 08 00 45 	movq   $0x604500,0x8(%rsp)
  401c23:	60 00 
  401c25:	89 34 24             	mov    %esi,(%rsp)
  401c28:	8b 15 1a 25 20 00    	mov    0x20251a(%rip),%edx        # 604148 <target_id>
  401c2e:	be ab 31 40 00       	mov    $0x4031ab,%esi
  401c33:	48 8d bc 24 10 20 00 	lea    0x2010(%rsp),%rdi
  401c3a:	00 
  401c3b:	b8 00 00 00 00       	mov    $0x0,%eax
  401c40:	e8 ab f2 ff ff       	callq  400ef0 <sprintf@plt>
  401c45:	83 3d 3c 28 20 00 00 	cmpl   $0x0,0x20283c(%rip)        # 604488 <notify>
  401c4c:	74 78                	je     401cc6 <notify_server+0x11a>
  401c4e:	85 db                	test   %ebx,%ebx
  401c50:	74 68                	je     401cba <notify_server+0x10e>
  401c52:	4c 8d 4c 24 10       	lea    0x10(%rsp),%r9
  401c57:	41 b8 00 00 00 00    	mov    $0x0,%r8d
  401c5d:	48 8d 8c 24 10 20 00 	lea    0x2010(%rsp),%rcx
  401c64:	00 
  401c65:	48 8b 15 e4 24 20 00 	mov    0x2024e4(%rip),%rdx        # 604150 <lab>
  401c6c:	48 8b 35 e5 24 20 00 	mov    0x2024e5(%rip),%rsi        # 604158 <course>
  401c73:	48 8b 3d c6 24 20 00 	mov    0x2024c6(%rip),%rdi        # 604140 <user_id>
  401c7a:	e8 c0 0f 00 00       	callq  402c3f <driver_post>
  401c7f:	85 c0                	test   %eax,%eax
  401c81:	79 1e                	jns    401ca1 <notify_server+0xf5>
  401c83:	48 8d 74 24 10       	lea    0x10(%rsp),%rsi
  401c88:	bf c7 31 40 00       	mov    $0x4031c7,%edi
  401c8d:	b8 00 00 00 00       	mov    $0x0,%eax
  401c92:	e8 09 f1 ff ff       	callq  400da0 <printf@plt>
  401c97:	bf 01 00 00 00       	mov    $0x1,%edi
  401c9c:	e8 5f f2 ff ff       	callq  400f00 <exit@plt>
  401ca1:	bf f0 32 40 00       	mov    $0x4032f0,%edi
  401ca6:	e8 c5 f0 ff ff       	callq  400d70 <puts@plt>
  401cab:	bf d3 31 40 00       	mov    $0x4031d3,%edi
  401cb0:	e8 bb f0 ff ff       	callq  400d70 <puts@plt>
  401cb5:	e9 85 00 00 00       	jmpq   401d3f <notify_server+0x193>
  401cba:	bf dd 31 40 00       	mov    $0x4031dd,%edi
  401cbf:	e8 ac f0 ff ff       	callq  400d70 <puts@plt>
  401cc4:	eb 79                	jmp    401d3f <notify_server+0x193>
  401cc6:	85 db                	test   %ebx,%ebx
  401cc8:	74 08                	je     401cd2 <notify_server+0x126>
  401cca:	be a1 31 40 00       	mov    $0x4031a1,%esi
  401ccf:	90                   	nop
  401cd0:	eb 05                	jmp    401cd7 <notify_server+0x12b>
  401cd2:	be a6 31 40 00       	mov    $0x4031a6,%esi
  401cd7:	bf 28 33 40 00       	mov    $0x403328,%edi
  401cdc:	b8 00 00 00 00       	mov    $0x0,%eax
  401ce1:	e8 ba f0 ff ff       	callq  400da0 <printf@plt>
  401ce6:	48 8b 35 53 24 20 00 	mov    0x202453(%rip),%rsi        # 604140 <user_id>
  401ced:	bf e4 31 40 00       	mov    $0x4031e4,%edi
  401cf2:	b8 00 00 00 00       	mov    $0x0,%eax
  401cf7:	e8 a4 f0 ff ff       	callq  400da0 <printf@plt>
  401cfc:	48 8b 35 55 24 20 00 	mov    0x202455(%rip),%rsi        # 604158 <course>
  401d03:	bf f1 31 40 00       	mov    $0x4031f1,%edi
  401d08:	b8 00 00 00 00       	mov    $0x0,%eax
  401d0d:	e8 8e f0 ff ff       	callq  400da0 <printf@plt>
  401d12:	48 8b 35 37 24 20 00 	mov    0x202437(%rip),%rsi        # 604150 <lab>
  401d19:	bf fd 31 40 00       	mov    $0x4031fd,%edi
  401d1e:	b8 00 00 00 00       	mov    $0x0,%eax
  401d23:	e8 78 f0 ff ff       	callq  400da0 <printf@plt>
  401d28:	48 8d b4 24 10 20 00 	lea    0x2010(%rsp),%rsi
  401d2f:	00 
  401d30:	bf 06 32 40 00       	mov    $0x403206,%edi
  401d35:	b8 00 00 00 00       	mov    $0x0,%eax
  401d3a:	e8 61 f0 ff ff       	callq  400da0 <printf@plt>
  401d3f:	48 81 c4 10 40 00 00 	add    $0x4010,%rsp
  401d46:	5b                   	pop    %rbx
  401d47:	f3 c3                	repz retq 

0000000000401d49 <validate>:
  401d49:	53                   	push   %rbx
  401d4a:	89 fb                	mov    %edi,%ebx
  401d4c:	83 3d 95 27 20 00 00 	cmpl   $0x0,0x202795(%rip)        # 6044e8 <is_checker>
  401d53:	74 60                	je     401db5 <validate+0x6c>
  401d55:	39 3d 81 27 20 00    	cmp    %edi,0x202781(%rip)        # 6044dc <vlevel>
  401d5b:	74 14                	je     401d71 <validate+0x28>
  401d5d:	bf 12 32 40 00       	mov    $0x403212,%edi
  401d62:	e8 09 f0 ff ff       	callq  400d70 <puts@plt>
  401d67:	b8 00 00 00 00       	mov    $0x0,%eax
  401d6c:	e8 ba fd ff ff       	callq  401b2b <check_fail>
  401d71:	8b 35 61 27 20 00    	mov    0x202761(%rip),%esi        # 6044d8 <check_level>
  401d77:	39 fe                	cmp    %edi,%esi
  401d79:	74 1b                	je     401d96 <validate+0x4d>
  401d7b:	89 fa                	mov    %edi,%edx
  401d7d:	bf 50 33 40 00       	mov    $0x403350,%edi
  401d82:	b8 00 00 00 00       	mov    $0x0,%eax
  401d87:	e8 14 f0 ff ff       	callq  400da0 <printf@plt>
  401d8c:	b8 00 00 00 00       	mov    $0x0,%eax
  401d91:	e8 95 fd ff ff       	callq  401b2b <check_fail>
  401d96:	0f be 35 6b 33 20 00 	movsbl 0x20336b(%rip),%esi        # 605108 <target_prefix>
  401d9d:	b9 00 45 60 00       	mov    $0x604500,%ecx
  401da2:	89 fa                	mov    %edi,%edx
  401da4:	bf 30 32 40 00       	mov    $0x403230,%edi
  401da9:	b8 00 00 00 00       	mov    $0x0,%eax
  401dae:	e8 ed ef ff ff       	callq  400da0 <printf@plt>
  401db3:	eb 44                	jmp    401df9 <validate+0xb0>
  401db5:	39 3d 21 27 20 00    	cmp    %edi,0x202721(%rip)        # 6044dc <vlevel>
  401dbb:	74 18                	je     401dd5 <validate+0x8c>
  401dbd:	bf 12 32 40 00       	mov    $0x403212,%edi
  401dc2:	e8 a9 ef ff ff       	callq  400d70 <puts@plt>
  401dc7:	89 de                	mov    %ebx,%esi
  401dc9:	bf 00 00 00 00       	mov    $0x0,%edi
  401dce:	e8 d9 fd ff ff       	callq  401bac <notify_server>
  401dd3:	eb 24                	jmp    401df9 <validate+0xb0>
  401dd5:	0f be 15 2c 33 20 00 	movsbl 0x20332c(%rip),%edx        # 605108 <target_prefix>
  401ddc:	89 fe                	mov    %edi,%esi
  401dde:	bf 78 33 40 00       	mov    $0x403378,%edi
  401de3:	b8 00 00 00 00       	mov    $0x0,%eax
  401de8:	e8 b3 ef ff ff       	callq  400da0 <printf@plt>
  401ded:	89 de                	mov    %ebx,%esi
  401def:	bf 01 00 00 00       	mov    $0x1,%edi
  401df4:	e8 b3 fd ff ff       	callq  401bac <notify_server>
  401df9:	5b                   	pop    %rbx
  401dfa:	c3                   	retq   

0000000000401dfb <fail>:
  401dfb:	48 83 ec 08          	sub    $0x8,%rsp
  401dff:	83 3d e2 26 20 00 00 	cmpl   $0x0,0x2026e2(%rip)        # 6044e8 <is_checker>
  401e06:	74 0a                	je     401e12 <fail+0x17>
  401e08:	b8 00 00 00 00       	mov    $0x0,%eax
  401e0d:	e8 19 fd ff ff       	callq  401b2b <check_fail>
  401e12:	89 fe                	mov    %edi,%esi
  401e14:	bf 00 00 00 00       	mov    $0x0,%edi
  401e19:	e8 8e fd ff ff       	callq  401bac <notify_server>
  401e1e:	48 83 c4 08          	add    $0x8,%rsp
  401e22:	c3                   	retq   

0000000000401e23 <bushandler>:
  401e23:	48 83 ec 08          	sub    $0x8,%rsp
  401e27:	83 3d ba 26 20 00 00 	cmpl   $0x0,0x2026ba(%rip)        # 6044e8 <is_checker>
  401e2e:	74 14                	je     401e44 <bushandler+0x21>
  401e30:	bf 45 32 40 00       	mov    $0x403245,%edi
  401e35:	e8 36 ef ff ff       	callq  400d70 <puts@plt>
  401e3a:	b8 00 00 00 00       	mov    $0x0,%eax
  401e3f:	e8 e7 fc ff ff       	callq  401b2b <check_fail>
  401e44:	bf b0 33 40 00       	mov    $0x4033b0,%edi
  401e49:	e8 22 ef ff ff       	callq  400d70 <puts@plt>
  401e4e:	bf 4f 32 40 00       	mov    $0x40324f,%edi
  401e53:	e8 18 ef ff ff       	callq  400d70 <puts@plt>
  401e58:	be 00 00 00 00       	mov    $0x0,%esi
  401e5d:	bf 00 00 00 00       	mov    $0x0,%edi
  401e62:	e8 45 fd ff ff       	callq  401bac <notify_server>
  401e67:	bf 01 00 00 00       	mov    $0x1,%edi
  401e6c:	e8 8f f0 ff ff       	callq  400f00 <exit@plt>

0000000000401e71 <seghandler>:
  401e71:	48 83 ec 08          	sub    $0x8,%rsp
  401e75:	83 3d 6c 26 20 00 00 	cmpl   $0x0,0x20266c(%rip)        # 6044e8 <is_checker>
  401e7c:	74 14                	je     401e92 <seghandler+0x21>
  401e7e:	bf 65 32 40 00       	mov    $0x403265,%edi
  401e83:	e8 e8 ee ff ff       	callq  400d70 <puts@plt>
  401e88:	b8 00 00 00 00       	mov    $0x0,%eax
  401e8d:	e8 99 fc ff ff       	callq  401b2b <check_fail>
  401e92:	bf d0 33 40 00       	mov    $0x4033d0,%edi
  401e97:	e8 d4 ee ff ff       	callq  400d70 <puts@plt>
  401e9c:	bf 4f 32 40 00       	mov    $0x40324f,%edi
  401ea1:	e8 ca ee ff ff       	callq  400d70 <puts@plt>
  401ea6:	be 00 00 00 00       	mov    $0x0,%esi
  401eab:	bf 00 00 00 00       	mov    $0x0,%edi
  401eb0:	e8 f7 fc ff ff       	callq  401bac <notify_server>
  401eb5:	bf 01 00 00 00       	mov    $0x1,%edi
  401eba:	e8 41 f0 ff ff       	callq  400f00 <exit@plt>

0000000000401ebf <illegalhandler>:
  401ebf:	48 83 ec 08          	sub    $0x8,%rsp
  401ec3:	83 3d 1e 26 20 00 00 	cmpl   $0x0,0x20261e(%rip)        # 6044e8 <is_checker>
  401eca:	74 14                	je     401ee0 <illegalhandler+0x21>
  401ecc:	bf 78 32 40 00       	mov    $0x403278,%edi
  401ed1:	e8 9a ee ff ff       	callq  400d70 <puts@plt>
  401ed6:	b8 00 00 00 00       	mov    $0x0,%eax
  401edb:	e8 4b fc ff ff       	callq  401b2b <check_fail>
  401ee0:	bf f8 33 40 00       	mov    $0x4033f8,%edi
  401ee5:	e8 86 ee ff ff       	callq  400d70 <puts@plt>
  401eea:	bf 4f 32 40 00       	mov    $0x40324f,%edi
  401eef:	e8 7c ee ff ff       	callq  400d70 <puts@plt>
  401ef4:	be 00 00 00 00       	mov    $0x0,%esi
  401ef9:	bf 00 00 00 00       	mov    $0x0,%edi
  401efe:	e8 a9 fc ff ff       	callq  401bac <notify_server>
  401f03:	bf 01 00 00 00       	mov    $0x1,%edi
  401f08:	e8 f3 ef ff ff       	callq  400f00 <exit@plt>

0000000000401f0d <sigalrmhandler>:
  401f0d:	48 83 ec 08          	sub    $0x8,%rsp
  401f11:	83 3d d0 25 20 00 00 	cmpl   $0x0,0x2025d0(%rip)        # 6044e8 <is_checker>
  401f18:	74 14                	je     401f2e <sigalrmhandler+0x21>
  401f1a:	bf 8c 32 40 00       	mov    $0x40328c,%edi
  401f1f:	e8 4c ee ff ff       	callq  400d70 <puts@plt>
  401f24:	b8 00 00 00 00       	mov    $0x0,%eax
  401f29:	e8 fd fb ff ff       	callq  401b2b <check_fail>
  401f2e:	be 05 00 00 00       	mov    $0x5,%esi
  401f33:	bf 28 34 40 00       	mov    $0x403428,%edi
  401f38:	b8 00 00 00 00       	mov    $0x0,%eax
  401f3d:	e8 5e ee ff ff       	callq  400da0 <printf@plt>
  401f42:	be 00 00 00 00       	mov    $0x0,%esi
  401f47:	bf 00 00 00 00       	mov    $0x0,%edi
  401f4c:	e8 5b fc ff ff       	callq  401bac <notify_server>
  401f51:	bf 01 00 00 00       	mov    $0x1,%edi
  401f56:	e8 a5 ef ff ff       	callq  400f00 <exit@plt>

0000000000401f5b <launch>:
  401f5b:	55                   	push   %rbp
  401f5c:	48 89 e5             	mov    %rsp,%rbp
  401f5f:	48 89 fa             	mov    %rdi,%rdx
  401f62:	48 8d 47 1e          	lea    0x1e(%rdi),%rax
  401f66:	48 83 e0 f0          	and    $0xfffffffffffffff0,%rax
  401f6a:	48 29 c4             	sub    %rax,%rsp
  401f6d:	48 8d 7c 24 0f       	lea    0xf(%rsp),%rdi
  401f72:	48 83 e7 f0          	and    $0xfffffffffffffff0,%rdi
  401f76:	be f4 00 00 00       	mov    $0xf4,%esi
  401f7b:	e8 30 ee ff ff       	callq  400db0 <memset@plt>
  401f80:	48 8b 05 19 25 20 00 	mov    0x202519(%rip),%rax        # 6044a0 <stdin@@GLIBC_2.2.5>
  401f87:	48 39 05 42 25 20 00 	cmp    %rax,0x202542(%rip)        # 6044d0 <infile>
  401f8e:	75 0f                	jne    401f9f <launch+0x44>
  401f90:	bf 94 32 40 00       	mov    $0x403294,%edi
  401f95:	b8 00 00 00 00       	mov    $0x0,%eax
  401f9a:	e8 01 ee ff ff       	callq  400da0 <printf@plt>
  401f9f:	c7 05 33 25 20 00 00 	movl   $0x0,0x202533(%rip)        # 6044dc <vlevel>
  401fa6:	00 00 00 
  401fa9:	b8 00 00 00 00       	mov    $0x0,%eax
  401fae:	e8 e9 fa ff ff       	callq  401a9c <test>
  401fb3:	83 3d 2e 25 20 00 00 	cmpl   $0x0,0x20252e(%rip)        # 6044e8 <is_checker>
  401fba:	74 14                	je     401fd0 <launch+0x75>
  401fbc:	bf a1 32 40 00       	mov    $0x4032a1,%edi
  401fc1:	e8 aa ed ff ff       	callq  400d70 <puts@plt>
  401fc6:	b8 00 00 00 00       	mov    $0x0,%eax
  401fcb:	e8 5b fb ff ff       	callq  401b2b <check_fail>
  401fd0:	bf ac 32 40 00       	mov    $0x4032ac,%edi
  401fd5:	e8 96 ed ff ff       	callq  400d70 <puts@plt>
  401fda:	c9                   	leaveq 
  401fdb:	c3                   	retq   

0000000000401fdc <stable_launch>:
  401fdc:	53                   	push   %rbx
  401fdd:	48 89 3d e4 24 20 00 	mov    %rdi,0x2024e4(%rip)        # 6044c8 <global_offset>
  401fe4:	41 b9 00 00 00 00    	mov    $0x0,%r9d
  401fea:	41 b8 00 00 00 00    	mov    $0x0,%r8d
  401ff0:	b9 32 01 00 00       	mov    $0x132,%ecx
  401ff5:	ba 07 00 00 00       	mov    $0x7,%edx
  401ffa:	be 00 00 10 00       	mov    $0x100000,%esi
  401fff:	bf 00 60 58 55       	mov    $0x55586000,%edi
  402004:	e8 87 ed ff ff       	callq  400d90 <mmap@plt>
  402009:	48 89 c3             	mov    %rax,%rbx
  40200c:	48 3d 00 60 58 55    	cmp    $0x55586000,%rax
  402012:	74 32                	je     402046 <stable_launch+0x6a>
  402014:	be 00 00 10 00       	mov    $0x100000,%esi
  402019:	48 89 c7             	mov    %rax,%rdi
  40201c:	e8 6f ee ff ff       	callq  400e90 <munmap@plt>
  402021:	ba 00 60 58 55       	mov    $0x55586000,%edx
  402026:	be 60 34 40 00       	mov    $0x403460,%esi
  40202b:	48 8b 3d 7e 24 20 00 	mov    0x20247e(%rip),%rdi        # 6044b0 <stderr@@GLIBC_2.2.5>
  402032:	b8 00 00 00 00       	mov    $0x0,%eax
  402037:	e8 e4 ed ff ff       	callq  400e20 <fprintf@plt>
  40203c:	bf 01 00 00 00       	mov    $0x1,%edi
  402041:	e8 ba ee ff ff       	callq  400f00 <exit@plt>
  402046:	48 8d 90 f8 ff 0f 00 	lea    0xffff8(%rax),%rdx
  40204d:	48 89 15 bc 30 20 00 	mov    %rdx,0x2030bc(%rip)        # 605110 <stack_top>
  402054:	48 89 e0             	mov    %rsp,%rax
  402057:	48 89 d4             	mov    %rdx,%rsp
  40205a:	48 89 c2             	mov    %rax,%rdx
  40205d:	48 89 15 5c 24 20 00 	mov    %rdx,0x20245c(%rip)        # 6044c0 <global_save_stack>
  402064:	48 8b 3d 5d 24 20 00 	mov    0x20245d(%rip),%rdi        # 6044c8 <global_offset>
  40206b:	e8 eb fe ff ff       	callq  401f5b <launch>
  402070:	48 8b 05 49 24 20 00 	mov    0x202449(%rip),%rax        # 6044c0 <global_save_stack>
  402077:	48 89 c4             	mov    %rax,%rsp
  40207a:	be 00 00 10 00       	mov    $0x100000,%esi
  40207f:	48 89 df             	mov    %rbx,%rdi
  402082:	e8 09 ee ff ff       	callq  400e90 <munmap@plt>
  402087:	5b                   	pop    %rbx
  402088:	c3                   	retq   
  402089:	0f 1f 80 00 00 00 00 	nopl   0x0(%rax)

0000000000402090 <rio_readinitb>:
  402090:	89 37                	mov    %esi,(%rdi)
  402092:	c7 47 04 00 00 00 00 	movl   $0x0,0x4(%rdi)
  402099:	48 8d 47 10          	lea    0x10(%rdi),%rax
  40209d:	48 89 47 08          	mov    %rax,0x8(%rdi)
  4020a1:	c3                   	retq   

00000000004020a2 <sigalrm_handler>:
  4020a2:	48 83 ec 08          	sub    $0x8,%rsp
  4020a6:	ba 00 00 00 00       	mov    $0x0,%edx
  4020ab:	be a0 34 40 00       	mov    $0x4034a0,%esi
  4020b0:	48 8b 3d f9 23 20 00 	mov    0x2023f9(%rip),%rdi        # 6044b0 <stderr@@GLIBC_2.2.5>
  4020b7:	b8 00 00 00 00       	mov    $0x0,%eax
  4020bc:	e8 5f ed ff ff       	callq  400e20 <fprintf@plt>
  4020c1:	bf 01 00 00 00       	mov    $0x1,%edi
  4020c6:	e8 35 ee ff ff       	callq  400f00 <exit@plt>

00000000004020cb <urlencode>:
  4020cb:	41 54                	push   %r12
  4020cd:	55                   	push   %rbp
  4020ce:	53                   	push   %rbx
  4020cf:	48 83 ec 10          	sub    $0x10,%rsp
  4020d3:	48 89 fb             	mov    %rdi,%rbx
  4020d6:	48 89 f5             	mov    %rsi,%rbp
  4020d9:	b8 00 00 00 00       	mov    $0x0,%eax
  4020de:	48 c7 c1 ff ff ff ff 	mov    $0xffffffffffffffff,%rcx
  4020e5:	f2 ae                	repnz scas %es:(%rdi),%al
  4020e7:	48 f7 d1             	not    %rcx
  4020ea:	8d 41 ff             	lea    -0x1(%rcx),%eax
  4020ed:	e9 93 00 00 00       	jmpq   402185 <urlencode+0xba>
  4020f2:	0f b6 13             	movzbl (%rbx),%edx
  4020f5:	80 fa 2a             	cmp    $0x2a,%dl
  4020f8:	0f 94 c1             	sete   %cl
  4020fb:	80 fa 2d             	cmp    $0x2d,%dl
  4020fe:	0f 94 c0             	sete   %al
  402101:	08 c1                	or     %al,%cl
  402103:	75 1f                	jne    402124 <urlencode+0x59>
  402105:	80 fa 2e             	cmp    $0x2e,%dl
  402108:	74 1a                	je     402124 <urlencode+0x59>
  40210a:	80 fa 5f             	cmp    $0x5f,%dl
  40210d:	74 15                	je     402124 <urlencode+0x59>
  40210f:	8d 42 d0             	lea    -0x30(%rdx),%eax
  402112:	3c 09                	cmp    $0x9,%al
  402114:	76 0e                	jbe    402124 <urlencode+0x59>
  402116:	8d 42 bf             	lea    -0x41(%rdx),%eax
  402119:	3c 19                	cmp    $0x19,%al
  40211b:	76 07                	jbe    402124 <urlencode+0x59>
  40211d:	8d 42 9f             	lea    -0x61(%rdx),%eax
  402120:	3c 19                	cmp    $0x19,%al
  402122:	77 09                	ja     40212d <urlencode+0x62>
  402124:	88 55 00             	mov    %dl,0x0(%rbp)
  402127:	48 8d 6d 01          	lea    0x1(%rbp),%rbp
  40212b:	eb 51                	jmp    40217e <urlencode+0xb3>
  40212d:	80 fa 20             	cmp    $0x20,%dl
  402130:	75 0a                	jne    40213c <urlencode+0x71>
  402132:	c6 45 00 2b          	movb   $0x2b,0x0(%rbp)
  402136:	48 8d 6d 01          	lea    0x1(%rbp),%rbp
  40213a:	eb 42                	jmp    40217e <urlencode+0xb3>
  40213c:	8d 42 e0             	lea    -0x20(%rdx),%eax
  40213f:	3c 5f                	cmp    $0x5f,%al
  402141:	0f 96 c1             	setbe  %cl
  402144:	80 fa 09             	cmp    $0x9,%dl
  402147:	0f 94 c0             	sete   %al
  40214a:	08 c1                	or     %al,%cl
  40214c:	74 45                	je     402193 <urlencode+0xc8>
  40214e:	0f b6 d2             	movzbl %dl,%edx
  402151:	be 38 35 40 00       	mov    $0x403538,%esi
  402156:	48 89 e7             	mov    %rsp,%rdi
  402159:	b8 00 00 00 00       	mov    $0x0,%eax
  40215e:	e8 8d ed ff ff       	callq  400ef0 <sprintf@plt>
  402163:	0f b6 04 24          	movzbl (%rsp),%eax
  402167:	88 45 00             	mov    %al,0x0(%rbp)
  40216a:	0f b6 44 24 01       	movzbl 0x1(%rsp),%eax
  40216f:	88 45 01             	mov    %al,0x1(%rbp)
  402172:	0f b6 44 24 02       	movzbl 0x2(%rsp),%eax
  402177:	88 45 02             	mov    %al,0x2(%rbp)
  40217a:	48 8d 6d 03          	lea    0x3(%rbp),%rbp
  40217e:	48 83 c3 01          	add    $0x1,%rbx
  402182:	44 89 e0             	mov    %r12d,%eax
  402185:	44 8d 60 ff          	lea    -0x1(%rax),%r12d
  402189:	85 c0                	test   %eax,%eax
  40218b:	0f 85 61 ff ff ff    	jne    4020f2 <urlencode+0x27>
  402191:	eb 05                	jmp    402198 <urlencode+0xcd>
  402193:	b8 ff ff ff ff       	mov    $0xffffffff,%eax
  402198:	48 83 c4 10          	add    $0x10,%rsp
  40219c:	5b                   	pop    %rbx
  40219d:	5d                   	pop    %rbp
  40219e:	41 5c                	pop    %r12
  4021a0:	c3                   	retq   

00000000004021a1 <rio_writen>:
  4021a1:	41 55                	push   %r13
  4021a3:	41 54                	push   %r12
  4021a5:	55                   	push   %rbp
  4021a6:	53                   	push   %rbx
  4021a7:	48 83 ec 08          	sub    $0x8,%rsp
  4021ab:	41 89 fc             	mov    %edi,%r12d
  4021ae:	48 89 f5             	mov    %rsi,%rbp
  4021b1:	49 89 d5             	mov    %rdx,%r13
  4021b4:	48 89 d3             	mov    %rdx,%rbx
  4021b7:	eb 28                	jmp    4021e1 <rio_writen+0x40>
  4021b9:	48 89 da             	mov    %rbx,%rdx
  4021bc:	48 89 ee             	mov    %rbp,%rsi
  4021bf:	44 89 e7             	mov    %r12d,%edi
  4021c2:	e8 b9 eb ff ff       	callq  400d80 <write@plt>
  4021c7:	48 85 c0             	test   %rax,%rax
  4021ca:	7f 0f                	jg     4021db <rio_writen+0x3a>
  4021cc:	e8 5f eb ff ff       	callq  400d30 <__errno_location@plt>
  4021d1:	83 38 04             	cmpl   $0x4,(%rax)
  4021d4:	75 15                	jne    4021eb <rio_writen+0x4a>
  4021d6:	b8 00 00 00 00       	mov    $0x0,%eax
  4021db:	48 29 c3             	sub    %rax,%rbx
  4021de:	48 01 c5             	add    %rax,%rbp
  4021e1:	48 85 db             	test   %rbx,%rbx
  4021e4:	75 d3                	jne    4021b9 <rio_writen+0x18>
  4021e6:	4c 89 e8             	mov    %r13,%rax
  4021e9:	eb 07                	jmp    4021f2 <rio_writen+0x51>
  4021eb:	48 c7 c0 ff ff ff ff 	mov    $0xffffffffffffffff,%rax
  4021f2:	48 83 c4 08          	add    $0x8,%rsp
  4021f6:	5b                   	pop    %rbx
  4021f7:	5d                   	pop    %rbp
  4021f8:	41 5c                	pop    %r12
  4021fa:	41 5d                	pop    %r13
  4021fc:	c3                   	retq   

00000000004021fd <rio_read>:
  4021fd:	41 56                	push   %r14
  4021ff:	41 55                	push   %r13
  402201:	41 54                	push   %r12
  402203:	55                   	push   %rbp
  402204:	53                   	push   %rbx
  402205:	48 89 fb             	mov    %rdi,%rbx
  402208:	49 89 f6             	mov    %rsi,%r14
  40220b:	49 89 d5             	mov    %rdx,%r13
  40220e:	4c 8d 67 10          	lea    0x10(%rdi),%r12
  402212:	eb 2a                	jmp    40223e <rio_read+0x41>
  402214:	ba 00 20 00 00       	mov    $0x2000,%edx
  402219:	4c 89 e6             	mov    %r12,%rsi
  40221c:	8b 3b                	mov    (%rbx),%edi
  40221e:	e8 bd eb ff ff       	callq  400de0 <read@plt>
  402223:	89 43 04             	mov    %eax,0x4(%rbx)
  402226:	85 c0                	test   %eax,%eax
  402228:	79 0c                	jns    402236 <rio_read+0x39>
  40222a:	e8 01 eb ff ff       	callq  400d30 <__errno_location@plt>
  40222f:	83 38 04             	cmpl   $0x4,(%rax)
  402232:	74 0a                	je     40223e <rio_read+0x41>
  402234:	eb 37                	jmp    40226d <rio_read+0x70>
  402236:	85 c0                	test   %eax,%eax
  402238:	74 3c                	je     402276 <rio_read+0x79>
  40223a:	4c 89 63 08          	mov    %r12,0x8(%rbx)
  40223e:	8b 6b 04             	mov    0x4(%rbx),%ebp
  402241:	85 ed                	test   %ebp,%ebp
  402243:	7e cf                	jle    402214 <rio_read+0x17>
  402245:	89 e8                	mov    %ebp,%eax
  402247:	4c 39 e8             	cmp    %r13,%rax
  40224a:	72 03                	jb     40224f <rio_read+0x52>
  40224c:	44 89 ed             	mov    %r13d,%ebp
  40224f:	4c 63 e5             	movslq %ebp,%r12
  402252:	48 8b 73 08          	mov    0x8(%rbx),%rsi
  402256:	4c 89 e2             	mov    %r12,%rdx
  402259:	4c 89 f7             	mov    %r14,%rdi
  40225c:	e8 df eb ff ff       	callq  400e40 <memcpy@plt>
  402261:	4c 01 63 08          	add    %r12,0x8(%rbx)
  402265:	29 6b 04             	sub    %ebp,0x4(%rbx)
  402268:	4c 89 e0             	mov    %r12,%rax
  40226b:	eb 0e                	jmp    40227b <rio_read+0x7e>
  40226d:	48 c7 c0 ff ff ff ff 	mov    $0xffffffffffffffff,%rax
  402274:	eb 05                	jmp    40227b <rio_read+0x7e>
  402276:	b8 00 00 00 00       	mov    $0x0,%eax
  40227b:	5b                   	pop    %rbx
  40227c:	5d                   	pop    %rbp
  40227d:	41 5c                	pop    %r12
  40227f:	41 5d                	pop    %r13
  402281:	41 5e                	pop    %r14
  402283:	c3                   	retq   

0000000000402284 <rio_readlineb>:
  402284:	41 55                	push   %r13
  402286:	41 54                	push   %r12
  402288:	55                   	push   %rbp
  402289:	53                   	push   %rbx
  40228a:	48 83 ec 18          	sub    $0x18,%rsp
  40228e:	49 89 fd             	mov    %rdi,%r13
  402291:	48 89 f5             	mov    %rsi,%rbp
  402294:	49 89 d4             	mov    %rdx,%r12
  402297:	bb 01 00 00 00       	mov    $0x1,%ebx
  40229c:	eb 3d                	jmp    4022db <rio_readlineb+0x57>
  40229e:	ba 01 00 00 00       	mov    $0x1,%edx
  4022a3:	48 8d 74 24 0f       	lea    0xf(%rsp),%rsi
  4022a8:	4c 89 ef             	mov    %r13,%rdi
  4022ab:	e8 4d ff ff ff       	callq  4021fd <rio_read>
  4022b0:	83 f8 01             	cmp    $0x1,%eax
  4022b3:	75 12                	jne    4022c7 <rio_readlineb+0x43>
  4022b5:	48 8d 55 01          	lea    0x1(%rbp),%rdx
  4022b9:	0f b6 44 24 0f       	movzbl 0xf(%rsp),%eax
  4022be:	88 45 00             	mov    %al,0x0(%rbp)
  4022c1:	3c 0a                	cmp    $0xa,%al
  4022c3:	75 0f                	jne    4022d4 <rio_readlineb+0x50>
  4022c5:	eb 1b                	jmp    4022e2 <rio_readlineb+0x5e>
  4022c7:	85 c0                	test   %eax,%eax
  4022c9:	75 23                	jne    4022ee <rio_readlineb+0x6a>
  4022cb:	48 83 fb 01          	cmp    $0x1,%rbx
  4022cf:	90                   	nop
  4022d0:	75 13                	jne    4022e5 <rio_readlineb+0x61>
  4022d2:	eb 23                	jmp    4022f7 <rio_readlineb+0x73>
  4022d4:	48 83 c3 01          	add    $0x1,%rbx
  4022d8:	48 89 d5             	mov    %rdx,%rbp
  4022db:	4c 39 e3             	cmp    %r12,%rbx
  4022de:	72 be                	jb     40229e <rio_readlineb+0x1a>
  4022e0:	eb 03                	jmp    4022e5 <rio_readlineb+0x61>
  4022e2:	48 89 d5             	mov    %rdx,%rbp
  4022e5:	c6 45 00 00          	movb   $0x0,0x0(%rbp)
  4022e9:	48 89 d8             	mov    %rbx,%rax
  4022ec:	eb 0e                	jmp    4022fc <rio_readlineb+0x78>
  4022ee:	48 c7 c0 ff ff ff ff 	mov    $0xffffffffffffffff,%rax
  4022f5:	eb 05                	jmp    4022fc <rio_readlineb+0x78>
  4022f7:	b8 00 00 00 00       	mov    $0x0,%eax
  4022fc:	48 83 c4 18          	add    $0x18,%rsp
  402300:	5b                   	pop    %rbx
  402301:	5d                   	pop    %rbp
  402302:	41 5c                	pop    %r12
  402304:	41 5d                	pop    %r13
  402306:	c3                   	retq   

0000000000402307 <submitr>:
  402307:	41 57                	push   %r15
  402309:	41 56                	push   %r14
  40230b:	41 55                	push   %r13
  40230d:	41 54                	push   %r12
  40230f:	55                   	push   %rbp
  402310:	53                   	push   %rbx
  402311:	48 81 ec 48 a0 00 00 	sub    $0xa048,%rsp
  402318:	49 89 fc             	mov    %rdi,%r12
  40231b:	89 74 24 04          	mov    %esi,0x4(%rsp)
  40231f:	49 89 d7             	mov    %rdx,%r15
  402322:	49 89 ce             	mov    %rcx,%r14
  402325:	4c 89 44 24 08       	mov    %r8,0x8(%rsp)
  40232a:	4d 89 cd             	mov    %r9,%r13
  40232d:	48 8b 9c 24 80 a0 00 	mov    0xa080(%rsp),%rbx
  402334:	00 
  402335:	c7 84 24 1c 20 00 00 	movl   $0x0,0x201c(%rsp)
  40233c:	00 00 00 00 
  402340:	ba 00 00 00 00       	mov    $0x0,%edx
  402345:	be 01 00 00 00       	mov    $0x1,%esi
  40234a:	bf 02 00 00 00       	mov    $0x2,%edi
  40234f:	e8 cc eb ff ff       	callq  400f20 <socket@plt>
  402354:	89 c5                	mov    %eax,%ebp
  402356:	85 c0                	test   %eax,%eax
  402358:	79 4e                	jns    4023a8 <submitr+0xa1>
  40235a:	48 b8 45 72 72 6f 72 	movabs $0x43203a726f727245,%rax
  402361:	3a 20 43 
  402364:	48 89 03             	mov    %rax,(%rbx)
  402367:	48 b8 6c 69 65 6e 74 	movabs $0x6e7520746e65696c,%rax
  40236e:	20 75 6e 
  402371:	48 89 43 08          	mov    %rax,0x8(%rbx)
  402375:	48 b8 61 62 6c 65 20 	movabs $0x206f7420656c6261,%rax
  40237c:	74 6f 20 
  40237f:	48 89 43 10          	mov    %rax,0x10(%rbx)
  402383:	48 b8 63 72 65 61 74 	movabs $0x7320657461657263,%rax
  40238a:	65 20 73 
  40238d:	48 89 43 18          	mov    %rax,0x18(%rbx)
  402391:	c7 43 20 6f 63 6b 65 	movl   $0x656b636f,0x20(%rbx)
  402398:	66 c7 43 24 74 00    	movw   $0x74,0x24(%rbx)
  40239e:	b8 ff ff ff ff       	mov    $0xffffffff,%eax
  4023a3:	e9 94 06 00 00       	jmpq   402a3c <submitr+0x735>
  4023a8:	4c 89 e7             	mov    %r12,%rdi
  4023ab:	e8 60 ea ff ff       	callq  400e10 <gethostbyname@plt>
  4023b0:	48 85 c0             	test   %rax,%rax
  4023b3:	75 67                	jne    40241c <submitr+0x115>
  4023b5:	48 b8 45 72 72 6f 72 	movabs $0x44203a726f727245,%rax
  4023bc:	3a 20 44 
  4023bf:	48 89 03             	mov    %rax,(%rbx)
  4023c2:	48 b8 4e 53 20 69 73 	movabs $0x6e7520736920534e,%rax
  4023c9:	20 75 6e 
  4023cc:	48 89 43 08          	mov    %rax,0x8(%rbx)
  4023d0:	48 b8 61 62 6c 65 20 	movabs $0x206f7420656c6261,%rax
  4023d7:	74 6f 20 
  4023da:	48 89 43 10          	mov    %rax,0x10(%rbx)
  4023de:	48 b8 72 65 73 6f 6c 	movabs $0x2065766c6f736572,%rax
  4023e5:	76 65 20 
  4023e8:	48 89 43 18          	mov    %rax,0x18(%rbx)
  4023ec:	48 b8 73 65 72 76 65 	movabs $0x6120726576726573,%rax
  4023f3:	72 20 61 
  4023f6:	48 89 43 20          	mov    %rax,0x20(%rbx)
  4023fa:	c7 43 28 64 64 72 65 	movl   $0x65726464,0x28(%rbx)
  402401:	66 c7 43 2c 73 73    	movw   $0x7373,0x2c(%rbx)
  402407:	c6 43 2e 00          	movb   $0x0,0x2e(%rbx)
  40240b:	89 ef                	mov    %ebp,%edi
  40240d:	e8 be e9 ff ff       	callq  400dd0 <close@plt>
  402412:	b8 ff ff ff ff       	mov    $0xffffffff,%eax
  402417:	e9 20 06 00 00       	jmpq   402a3c <submitr+0x735>
  40241c:	48 c7 84 24 30 a0 00 	movq   $0x0,0xa030(%rsp)
  402423:	00 00 00 00 00 
  402428:	48 c7 84 24 38 a0 00 	movq   $0x0,0xa038(%rsp)
  40242f:	00 00 00 00 00 
  402434:	66 c7 84 24 30 a0 00 	movw   $0x2,0xa030(%rsp)
  40243b:	00 02 00 
  40243e:	48 8b 48 18          	mov    0x18(%rax),%rcx
  402442:	48 63 50 14          	movslq 0x14(%rax),%rdx
  402446:	48 8d b4 24 34 a0 00 	lea    0xa034(%rsp),%rsi
  40244d:	00 
  40244e:	48 8b 39             	mov    (%rcx),%rdi
  402451:	e8 4a ea ff ff       	callq  400ea0 <bcopy@plt>
  402456:	0f b7 44 24 04       	movzwl 0x4(%rsp),%eax
  40245b:	66 c1 c8 08          	ror    $0x8,%ax
  40245f:	66 89 84 24 32 a0 00 	mov    %ax,0xa032(%rsp)
  402466:	00 
  402467:	ba 10 00 00 00       	mov    $0x10,%edx
  40246c:	48 8d b4 24 30 a0 00 	lea    0xa030(%rsp),%rsi
  402473:	00 
  402474:	89 ef                	mov    %ebp,%edi
  402476:	e8 95 ea ff ff       	callq  400f10 <connect@plt>
  40247b:	85 c0                	test   %eax,%eax
  40247d:	79 59                	jns    4024d8 <submitr+0x1d1>
  40247f:	48 b8 45 72 72 6f 72 	movabs $0x55203a726f727245,%rax
  402486:	3a 20 55 
  402489:	48 89 03             	mov    %rax,(%rbx)
  40248c:	48 b8 6e 61 62 6c 65 	movabs $0x6f7420656c62616e,%rax
  402493:	20 74 6f 
  402496:	48 89 43 08          	mov    %rax,0x8(%rbx)
  40249a:	48 b8 20 63 6f 6e 6e 	movabs $0x7463656e6e6f6320,%rax
  4024a1:	65 63 74 
  4024a4:	48 89 43 10          	mov    %rax,0x10(%rbx)
  4024a8:	48 b8 20 74 6f 20 74 	movabs $0x20656874206f7420,%rax
  4024af:	68 65 20 
  4024b2:	48 89 43 18          	mov    %rax,0x18(%rbx)
  4024b6:	c7 43 20 73 65 72 76 	movl   $0x76726573,0x20(%rbx)
  4024bd:	66 c7 43 24 65 72    	movw   $0x7265,0x24(%rbx)
  4024c3:	c6 43 26 00          	movb   $0x0,0x26(%rbx)
  4024c7:	89 ef                	mov    %ebp,%edi
  4024c9:	e8 02 e9 ff ff       	callq  400dd0 <close@plt>
  4024ce:	b8 ff ff ff ff       	mov    $0xffffffff,%eax
  4024d3:	e9 64 05 00 00       	jmpq   402a3c <submitr+0x735>
  4024d8:	48 c7 c2 ff ff ff ff 	mov    $0xffffffffffffffff,%rdx
  4024df:	4c 89 ef             	mov    %r13,%rdi
  4024e2:	b8 00 00 00 00       	mov    $0x0,%eax
  4024e7:	48 89 d1             	mov    %rdx,%rcx
  4024ea:	f2 ae                	repnz scas %es:(%rdi),%al
  4024ec:	48 f7 d1             	not    %rcx
  4024ef:	48 89 ce             	mov    %rcx,%rsi
  4024f2:	4c 89 ff             	mov    %r15,%rdi
  4024f5:	48 89 d1             	mov    %rdx,%rcx
  4024f8:	f2 ae                	repnz scas %es:(%rdi),%al
  4024fa:	48 f7 d1             	not    %rcx
  4024fd:	49 89 c8             	mov    %rcx,%r8
  402500:	4c 89 f7             	mov    %r14,%rdi
  402503:	48 89 d1             	mov    %rdx,%rcx
  402506:	f2 ae                	repnz scas %es:(%rdi),%al
  402508:	49 29 c8             	sub    %rcx,%r8
  40250b:	48 8b 7c 24 08       	mov    0x8(%rsp),%rdi
  402510:	48 89 d1             	mov    %rdx,%rcx
  402513:	f2 ae                	repnz scas %es:(%rdi),%al
  402515:	49 29 c8             	sub    %rcx,%r8
  402518:	48 8d 44 76 fd       	lea    -0x3(%rsi,%rsi,2),%rax
  40251d:	49 8d 44 00 7b       	lea    0x7b(%r8,%rax,1),%rax
  402522:	48 3d 00 20 00 00    	cmp    $0x2000,%rax
  402528:	76 72                	jbe    40259c <submitr+0x295>
  40252a:	48 b8 45 72 72 6f 72 	movabs $0x52203a726f727245,%rax
  402531:	3a 20 52 
  402534:	48 89 03             	mov    %rax,(%rbx)
  402537:	48 b8 65 73 75 6c 74 	movabs $0x747320746c757365,%rax
  40253e:	20 73 74 
  402541:	48 89 43 08          	mov    %rax,0x8(%rbx)
  402545:	48 b8 72 69 6e 67 20 	movabs $0x6f6f7420676e6972,%rax
  40254c:	74 6f 6f 
  40254f:	48 89 43 10          	mov    %rax,0x10(%rbx)
  402553:	48 b8 20 6c 61 72 67 	movabs $0x202e656772616c20,%rax
  40255a:	65 2e 20 
  40255d:	48 89 43 18          	mov    %rax,0x18(%rbx)
  402561:	48 b8 49 6e 63 72 65 	movabs $0x6573616572636e49,%rax
  402568:	61 73 65 
  40256b:	48 89 43 20          	mov    %rax,0x20(%rbx)
  40256f:	48 b8 20 53 55 42 4d 	movabs $0x5254494d42555320,%rax
  402576:	49 54 52 
  402579:	48 89 43 28          	mov    %rax,0x28(%rbx)
  40257d:	48 b8 5f 4d 41 58 42 	movabs $0x46554258414d5f,%rax
  402584:	55 46 00 
  402587:	48 89 43 30          	mov    %rax,0x30(%rbx)
  40258b:	89 ef                	mov    %ebp,%edi
  40258d:	e8 3e e8 ff ff       	callq  400dd0 <close@plt>
  402592:	b8 ff ff ff ff       	mov    $0xffffffff,%eax
  402597:	e9 a0 04 00 00       	jmpq   402a3c <submitr+0x735>
  40259c:	48 8d b4 24 20 40 00 	lea    0x4020(%rsp),%rsi
  4025a3:	00 
  4025a4:	b9 00 04 00 00       	mov    $0x400,%ecx
  4025a9:	b8 00 00 00 00       	mov    $0x0,%eax
  4025ae:	48 89 f7             	mov    %rsi,%rdi
  4025b1:	f3 48 ab             	rep stos %rax,%es:(%rdi)
  4025b4:	4c 89 ef             	mov    %r13,%rdi
  4025b7:	e8 0f fb ff ff       	callq  4020cb <urlencode>
  4025bc:	85 c0                	test   %eax,%eax
  4025be:	0f 89 8a 00 00 00    	jns    40264e <submitr+0x347>
  4025c4:	48 b8 45 72 72 6f 72 	movabs $0x52203a726f727245,%rax
  4025cb:	3a 20 52 
  4025ce:	48 89 03             	mov    %rax,(%rbx)
  4025d1:	48 b8 65 73 75 6c 74 	movabs $0x747320746c757365,%rax
  4025d8:	20 73 74 
  4025db:	48 89 43 08          	mov    %rax,0x8(%rbx)
  4025df:	48 b8 72 69 6e 67 20 	movabs $0x6e6f6320676e6972,%rax
  4025e6:	63 6f 6e 
  4025e9:	48 89 43 10          	mov    %rax,0x10(%rbx)
  4025ed:	48 b8 74 61 69 6e 73 	movabs $0x6e6120736e696174,%rax
  4025f4:	20 61 6e 
  4025f7:	48 89 43 18          	mov    %rax,0x18(%rbx)
  4025fb:	48 b8 20 69 6c 6c 65 	movabs $0x6c6167656c6c6920,%rax
  402602:	67 61 6c 
  402605:	48 89 43 20          	mov    %rax,0x20(%rbx)
  402609:	48 b8 20 6f 72 20 75 	movabs $0x72706e7520726f20,%rax
  402610:	6e 70 72 
  402613:	48 89 43 28          	mov    %rax,0x28(%rbx)
  402617:	48 b8 69 6e 74 61 62 	movabs $0x20656c6261746e69,%rax
  40261e:	6c 65 20 
  402621:	48 89 43 30          	mov    %rax,0x30(%rbx)
  402625:	48 b8 63 68 61 72 61 	movabs $0x6574636172616863,%rax
  40262c:	63 74 65 
  40262f:	48 89 43 38          	mov    %rax,0x38(%rbx)
  402633:	66 c7 43 40 72 2e    	movw   $0x2e72,0x40(%rbx)
  402639:	c6 43 42 00          	movb   $0x0,0x42(%rbx)
  40263d:	89 ef                	mov    %ebp,%edi
  40263f:	e8 8c e7 ff ff       	callq  400dd0 <close@plt>
  402644:	b8 ff ff ff ff       	mov    $0xffffffff,%eax
  402649:	e9 ee 03 00 00       	jmpq   402a3c <submitr+0x735>
  40264e:	4d 89 e1             	mov    %r12,%r9
  402651:	4c 8d 84 24 20 40 00 	lea    0x4020(%rsp),%r8
  402658:	00 
  402659:	4c 89 f9             	mov    %r15,%rcx
  40265c:	4c 89 f2             	mov    %r14,%rdx
  40265f:	be c8 34 40 00       	mov    $0x4034c8,%esi
  402664:	48 8d bc 24 20 60 00 	lea    0x6020(%rsp),%rdi
  40266b:	00 
  40266c:	b8 00 00 00 00       	mov    $0x0,%eax
  402671:	e8 7a e8 ff ff       	callq  400ef0 <sprintf@plt>
  402676:	48 8d bc 24 20 60 00 	lea    0x6020(%rsp),%rdi
  40267d:	00 
  40267e:	b8 00 00 00 00       	mov    $0x0,%eax
  402683:	48 c7 c1 ff ff ff ff 	mov    $0xffffffffffffffff,%rcx
  40268a:	f2 ae                	repnz scas %es:(%rdi),%al
  40268c:	48 f7 d1             	not    %rcx
  40268f:	48 8d 51 ff          	lea    -0x1(%rcx),%rdx
  402693:	48 8d b4 24 20 60 00 	lea    0x6020(%rsp),%rsi
  40269a:	00 
  40269b:	89 ef                	mov    %ebp,%edi
  40269d:	e8 ff fa ff ff       	callq  4021a1 <rio_writen>
  4026a2:	48 85 c0             	test   %rax,%rax
  4026a5:	79 6e                	jns    402715 <submitr+0x40e>
  4026a7:	48 b8 45 72 72 6f 72 	movabs $0x43203a726f727245,%rax
  4026ae:	3a 20 43 
  4026b1:	48 89 03             	mov    %rax,(%rbx)
  4026b4:	48 b8 6c 69 65 6e 74 	movabs $0x6e7520746e65696c,%rax
  4026bb:	20 75 6e 
  4026be:	48 89 43 08          	mov    %rax,0x8(%rbx)
  4026c2:	48 b8 61 62 6c 65 20 	movabs $0x206f7420656c6261,%rax
  4026c9:	74 6f 20 
  4026cc:	48 89 43 10          	mov    %rax,0x10(%rbx)
  4026d0:	48 b8 77 72 69 74 65 	movabs $0x6f74206574697277,%rax
  4026d7:	20 74 6f 
  4026da:	48 89 43 18          	mov    %rax,0x18(%rbx)
  4026de:	48 b8 20 74 68 65 20 	movabs $0x7365722065687420,%rax
  4026e5:	72 65 73 
  4026e8:	48 89 43 20          	mov    %rax,0x20(%rbx)
  4026ec:	48 b8 75 6c 74 20 73 	movabs $0x7672657320746c75,%rax
  4026f3:	65 72 76 
  4026f6:	48 89 43 28          	mov    %rax,0x28(%rbx)
  4026fa:	66 c7 43 30 65 72    	movw   $0x7265,0x30(%rbx)
  402700:	c6 43 32 00          	movb   $0x0,0x32(%rbx)
  402704:	89 ef                	mov    %ebp,%edi
  402706:	e8 c5 e6 ff ff       	callq  400dd0 <close@plt>
  40270b:	b8 ff ff ff ff       	mov    $0xffffffff,%eax
  402710:	e9 27 03 00 00       	jmpq   402a3c <submitr+0x735>
  402715:	89 ee                	mov    %ebp,%esi
  402717:	48 8d bc 24 20 80 00 	lea    0x8020(%rsp),%rdi
  40271e:	00 
  40271f:	e8 6c f9 ff ff       	callq  402090 <rio_readinitb>
  402724:	ba 00 20 00 00       	mov    $0x2000,%edx
  402729:	48 8d b4 24 20 60 00 	lea    0x6020(%rsp),%rsi
  402730:	00 
  402731:	48 8d bc 24 20 80 00 	lea    0x8020(%rsp),%rdi
  402738:	00 
  402739:	e8 46 fb ff ff       	callq  402284 <rio_readlineb>
  40273e:	48 85 c0             	test   %rax,%rax
  402741:	7f 7d                	jg     4027c0 <submitr+0x4b9>
  402743:	48 b8 45 72 72 6f 72 	movabs $0x43203a726f727245,%rax
  40274a:	3a 20 43 
  40274d:	48 89 03             	mov    %rax,(%rbx)
  402750:	48 b8 6c 69 65 6e 74 	movabs $0x6e7520746e65696c,%rax
  402757:	20 75 6e 
  40275a:	48 89 43 08          	mov    %rax,0x8(%rbx)
  40275e:	48 b8 61 62 6c 65 20 	movabs $0x206f7420656c6261,%rax
  402765:	74 6f 20 
  402768:	48 89 43 10          	mov    %rax,0x10(%rbx)
  40276c:	48 b8 72 65 61 64 20 	movabs $0x7269662064616572,%rax
  402773:	66 69 72 
  402776:	48 89 43 18          	mov    %rax,0x18(%rbx)
  40277a:	48 b8 73 74 20 68 65 	movabs $0x6564616568207473,%rax
  402781:	61 64 65 
  402784:	48 89 43 20          	mov    %rax,0x20(%rbx)
  402788:	48 b8 72 20 66 72 6f 	movabs $0x72206d6f72662072,%rax
  40278f:	6d 20 72 
  402792:	48 89 43 28          	mov    %rax,0x28(%rbx)
  402796:	48 b8 65 73 75 6c 74 	movabs $0x657320746c757365,%rax
  40279d:	20 73 65 
  4027a0:	48 89 43 30          	mov    %rax,0x30(%rbx)
  4027a4:	c7 43 38 72 76 65 72 	movl   $0x72657672,0x38(%rbx)
  4027ab:	c6 43 3c 00          	movb   $0x0,0x3c(%rbx)
  4027af:	89 ef                	mov    %ebp,%edi
  4027b1:	e8 1a e6 ff ff       	callq  400dd0 <close@plt>
  4027b6:	b8 ff ff ff ff       	mov    $0xffffffff,%eax
  4027bb:	e9 7c 02 00 00       	jmpq   402a3c <submitr+0x735>
  4027c0:	4c 8d 44 24 10       	lea    0x10(%rsp),%r8
  4027c5:	48 8d 8c 24 1c 20 00 	lea    0x201c(%rsp),%rcx
  4027cc:	00 
  4027cd:	48 8d 94 24 20 20 00 	lea    0x2020(%rsp),%rdx
  4027d4:	00 
  4027d5:	be 3f 35 40 00       	mov    $0x40353f,%esi
  4027da:	48 8d bc 24 20 60 00 	lea    0x6020(%rsp),%rdi
  4027e1:	00 
  4027e2:	b8 00 00 00 00       	mov    $0x0,%eax
  4027e7:	e8 94 e6 ff ff       	callq  400e80 <__isoc99_sscanf@plt>
  4027ec:	41 bc 0d 00 00 00    	mov    $0xd,%r12d
  4027f2:	41 bd 0a 00 00 00    	mov    $0xa,%r13d
  4027f8:	e9 98 00 00 00       	jmpq   402895 <submitr+0x58e>
  4027fd:	ba 00 20 00 00       	mov    $0x2000,%edx
  402802:	48 8d b4 24 20 60 00 	lea    0x6020(%rsp),%rsi
  402809:	00 
  40280a:	48 8d bc 24 20 80 00 	lea    0x8020(%rsp),%rdi
  402811:	00 
  402812:	e8 6d fa ff ff       	callq  402284 <rio_readlineb>
  402817:	48 85 c0             	test   %rax,%rax
  40281a:	7f 79                	jg     402895 <submitr+0x58e>
  40281c:	48 b8 45 72 72 6f 72 	movabs $0x43203a726f727245,%rax
  402823:	3a 20 43 
  402826:	48 89 03             	mov    %rax,(%rbx)
  402829:	48 b8 6c 69 65 6e 74 	movabs $0x6e7520746e65696c,%rax
  402830:	20 75 6e 
  402833:	48 89 43 08          	mov    %rax,0x8(%rbx)
  402837:	48 b8 61 62 6c 65 20 	movabs $0x206f7420656c6261,%rax
  40283e:	74 6f 20 
  402841:	48 89 43 10          	mov    %rax,0x10(%rbx)
  402845:	48 b8 72 65 61 64 20 	movabs $0x6165682064616572,%rax
  40284c:	68 65 61 
  40284f:	48 89 43 18          	mov    %rax,0x18(%rbx)
  402853:	48 b8 64 65 72 73 20 	movabs $0x6f72662073726564,%rax
  40285a:	66 72 6f 
  40285d:	48 89 43 20          	mov    %rax,0x20(%rbx)
  402861:	48 b8 6d 20 74 68 65 	movabs $0x657220656874206d,%rax
  402868:	20 72 65 
  40286b:	48 89 43 28          	mov    %rax,0x28(%rbx)
  40286f:	48 b8 73 75 6c 74 20 	movabs $0x72657320746c7573,%rax
  402876:	73 65 72 
  402879:	48 89 43 30          	mov    %rax,0x30(%rbx)
  40287d:	c7 43 38 76 65 72 00 	movl   $0x726576,0x38(%rbx)
  402884:	89 ef                	mov    %ebp,%edi
  402886:	e8 45 e5 ff ff       	callq  400dd0 <close@plt>
  40288b:	b8 ff ff ff ff       	mov    $0xffffffff,%eax
  402890:	e9 a7 01 00 00       	jmpq   402a3c <submitr+0x735>
  402895:	0f b6 84 24 20 60 00 	movzbl 0x6020(%rsp),%eax
  40289c:	00 
  40289d:	44 89 e6             	mov    %r12d,%esi
  4028a0:	29 c6                	sub    %eax,%esi
  4028a2:	89 f0                	mov    %esi,%eax
  4028a4:	75 1b                	jne    4028c1 <submitr+0x5ba>
  4028a6:	0f b6 84 24 21 60 00 	movzbl 0x6021(%rsp),%eax
  4028ad:	00 
  4028ae:	44 89 ea             	mov    %r13d,%edx
  4028b1:	29 c2                	sub    %eax,%edx
  4028b3:	89 d0                	mov    %edx,%eax
  4028b5:	75 0a                	jne    4028c1 <submitr+0x5ba>
  4028b7:	0f b6 84 24 22 60 00 	movzbl 0x6022(%rsp),%eax
  4028be:	00 
  4028bf:	f7 d8                	neg    %eax
  4028c1:	85 c0                	test   %eax,%eax
  4028c3:	0f 85 34 ff ff ff    	jne    4027fd <submitr+0x4f6>
  4028c9:	ba 00 20 00 00       	mov    $0x2000,%edx
  4028ce:	48 8d b4 24 20 60 00 	lea    0x6020(%rsp),%rsi
  4028d5:	00 
  4028d6:	48 8d bc 24 20 80 00 	lea    0x8020(%rsp),%rdi
  4028dd:	00 
  4028de:	e8 a1 f9 ff ff       	callq  402284 <rio_readlineb>
  4028e3:	48 85 c0             	test   %rax,%rax
  4028e6:	0f 8f 83 00 00 00    	jg     40296f <submitr+0x668>
  4028ec:	48 b8 45 72 72 6f 72 	movabs $0x43203a726f727245,%rax
  4028f3:	3a 20 43 
  4028f6:	48 89 03             	mov    %rax,(%rbx)
  4028f9:	48 b8 6c 69 65 6e 74 	movabs $0x6e7520746e65696c,%rax
  402900:	20 75 6e 
  402903:	48 89 43 08          	mov    %rax,0x8(%rbx)
  402907:	48 b8 61 62 6c 65 20 	movabs $0x206f7420656c6261,%rax
  40290e:	74 6f 20 
  402911:	48 89 43 10          	mov    %rax,0x10(%rbx)
  402915:	48 b8 72 65 61 64 20 	movabs $0x6174732064616572,%rax
  40291c:	73 74 61 
  40291f:	48 89 43 18          	mov    %rax,0x18(%rbx)
  402923:	48 b8 74 75 73 20 6d 	movabs $0x7373656d20737574,%rax
  40292a:	65 73 73 
  40292d:	48 89 43 20          	mov    %rax,0x20(%rbx)
  402931:	48 b8 61 67 65 20 66 	movabs $0x6d6f726620656761,%rax
  402938:	72 6f 6d 
  40293b:	48 89 43 28          	mov    %rax,0x28(%rbx)
  40293f:	48 b8 20 72 65 73 75 	movabs $0x20746c7573657220,%rax
  402946:	6c 74 20 
  402949:	48 89 43 30          	mov    %rax,0x30(%rbx)
  40294d:	c7 43 38 73 65 72 76 	movl   $0x76726573,0x38(%rbx)
  402954:	66 c7 43 3c 65 72    	movw   $0x7265,0x3c(%rbx)
  40295a:	c6 43 3e 00          	movb   $0x0,0x3e(%rbx)
  40295e:	89 ef                	mov    %ebp,%edi
  402960:	e8 6b e4 ff ff       	callq  400dd0 <close@plt>
  402965:	b8 ff ff ff ff       	mov    $0xffffffff,%eax
  40296a:	e9 cd 00 00 00       	jmpq   402a3c <submitr+0x735>
  40296f:	8b 94 24 1c 20 00 00 	mov    0x201c(%rsp),%edx
  402976:	81 fa c8 00 00 00    	cmp    $0xc8,%edx
  40297c:	74 28                	je     4029a6 <submitr+0x69f>
  40297e:	48 8d 4c 24 10       	lea    0x10(%rsp),%rcx
  402983:	be 08 35 40 00       	mov    $0x403508,%esi
  402988:	48 89 df             	mov    %rbx,%rdi
  40298b:	b8 00 00 00 00       	mov    $0x0,%eax
  402990:	e8 5b e5 ff ff       	callq  400ef0 <sprintf@plt>
  402995:	89 ef                	mov    %ebp,%edi
  402997:	e8 34 e4 ff ff       	callq  400dd0 <close@plt>
  40299c:	b8 ff ff ff ff       	mov    $0xffffffff,%eax
  4029a1:	e9 96 00 00 00       	jmpq   402a3c <submitr+0x735>
  4029a6:	48 8d b4 24 20 60 00 	lea    0x6020(%rsp),%rsi
  4029ad:	00 
  4029ae:	48 89 df             	mov    %rbx,%rdi
  4029b1:	e8 aa e3 ff ff       	callq  400d60 <strcpy@plt>
  4029b6:	89 ef                	mov    %ebp,%edi
  4029b8:	e8 13 e4 ff ff       	callq  400dd0 <close@plt>
  4029bd:	0f b6 03             	movzbl (%rbx),%eax
  4029c0:	ba 4f 00 00 00       	mov    $0x4f,%edx
  4029c5:	29 c2                	sub    %eax,%edx
  4029c7:	75 22                	jne    4029eb <submitr+0x6e4>
  4029c9:	0f b6 4b 01          	movzbl 0x1(%rbx),%ecx
  4029cd:	b8 4b 00 00 00       	mov    $0x4b,%eax
  4029d2:	29 c8                	sub    %ecx,%eax
  4029d4:	75 17                	jne    4029ed <submitr+0x6e6>
  4029d6:	0f b6 4b 02          	movzbl 0x2(%rbx),%ecx
  4029da:	b8 0a 00 00 00       	mov    $0xa,%eax
  4029df:	29 c8                	sub    %ecx,%eax
  4029e1:	75 0a                	jne    4029ed <submitr+0x6e6>
  4029e3:	0f b6 43 03          	movzbl 0x3(%rbx),%eax
  4029e7:	f7 d8                	neg    %eax
  4029e9:	eb 02                	jmp    4029ed <submitr+0x6e6>
  4029eb:	89 d0                	mov    %edx,%eax
  4029ed:	85 c0                	test   %eax,%eax
  4029ef:	74 38                	je     402a29 <submitr+0x722>
  4029f1:	bf 50 35 40 00       	mov    $0x403550,%edi
  4029f6:	b9 05 00 00 00       	mov    $0x5,%ecx
  4029fb:	48 89 de             	mov    %rbx,%rsi
  4029fe:	f3 a6                	repz cmpsb %es:(%rdi),%ds:(%rsi)
  402a00:	0f 97 c1             	seta   %cl
  402a03:	0f 92 c0             	setb   %al
  402a06:	38 c1                	cmp    %al,%cl
  402a08:	74 26                	je     402a30 <submitr+0x729>
  402a0a:	85 d2                	test   %edx,%edx
  402a0c:	75 10                	jne    402a1e <submitr+0x717>
  402a0e:	0f b6 43 01          	movzbl 0x1(%rbx),%eax
  402a12:	b2 4b                	mov    $0x4b,%dl
  402a14:	29 c2                	sub    %eax,%edx
  402a16:	75 06                	jne    402a1e <submitr+0x717>
  402a18:	0f b6 53 02          	movzbl 0x2(%rbx),%edx
  402a1c:	f7 da                	neg    %edx
  402a1e:	85 d2                	test   %edx,%edx
  402a20:	75 15                	jne    402a37 <submitr+0x730>
  402a22:	b8 00 00 00 00       	mov    $0x0,%eax
  402a27:	eb 13                	jmp    402a3c <submitr+0x735>
  402a29:	b8 00 00 00 00       	mov    $0x0,%eax
  402a2e:	eb 0c                	jmp    402a3c <submitr+0x735>
  402a30:	b8 00 00 00 00       	mov    $0x0,%eax
  402a35:	eb 05                	jmp    402a3c <submitr+0x735>
  402a37:	b8 ff ff ff ff       	mov    $0xffffffff,%eax
  402a3c:	48 81 c4 48 a0 00 00 	add    $0xa048,%rsp
  402a43:	5b                   	pop    %rbx
  402a44:	5d                   	pop    %rbp
  402a45:	41 5c                	pop    %r12
  402a47:	41 5d                	pop    %r13
  402a49:	41 5e                	pop    %r14
  402a4b:	41 5f                	pop    %r15
  402a4d:	c3                   	retq   

0000000000402a4e <init_timeout>:
  402a4e:	53                   	push   %rbx
  402a4f:	89 fb                	mov    %edi,%ebx
  402a51:	85 ff                	test   %edi,%edi
  402a53:	74 1f                	je     402a74 <init_timeout+0x26>
  402a55:	85 ff                	test   %edi,%edi
  402a57:	79 05                	jns    402a5e <init_timeout+0x10>
  402a59:	bb 00 00 00 00       	mov    $0x0,%ebx
  402a5e:	be a2 20 40 00       	mov    $0x4020a2,%esi
  402a63:	bf 0e 00 00 00       	mov    $0xe,%edi
  402a68:	e8 93 e3 ff ff       	callq  400e00 <signal@plt>
  402a6d:	89 df                	mov    %ebx,%edi
  402a6f:	e8 4c e3 ff ff       	callq  400dc0 <alarm@plt>
  402a74:	5b                   	pop    %rbx
  402a75:	c3                   	retq   

0000000000402a76 <init_driver>:
  402a76:	55                   	push   %rbp
  402a77:	53                   	push   %rbx
  402a78:	48 83 ec 18          	sub    $0x18,%rsp
  402a7c:	48 89 fd             	mov    %rdi,%rbp
  402a7f:	be 01 00 00 00       	mov    $0x1,%esi
  402a84:	bf 0d 00 00 00       	mov    $0xd,%edi
  402a89:	e8 72 e3 ff ff       	callq  400e00 <signal@plt>
  402a8e:	be 01 00 00 00       	mov    $0x1,%esi
  402a93:	bf 1d 00 00 00       	mov    $0x1d,%edi
  402a98:	e8 63 e3 ff ff       	callq  400e00 <signal@plt>
  402a9d:	be 01 00 00 00       	mov    $0x1,%esi
  402aa2:	bf 1d 00 00 00       	mov    $0x1d,%edi
  402aa7:	e8 54 e3 ff ff       	callq  400e00 <signal@plt>
  402aac:	ba 00 00 00 00       	mov    $0x0,%edx
  402ab1:	be 01 00 00 00       	mov    $0x1,%esi
  402ab6:	bf 02 00 00 00       	mov    $0x2,%edi
  402abb:	e8 60 e4 ff ff       	callq  400f20 <socket@plt>
  402ac0:	89 c3                	mov    %eax,%ebx
  402ac2:	85 c0                	test   %eax,%eax
  402ac4:	79 4f                	jns    402b15 <init_driver+0x9f>
  402ac6:	48 b8 45 72 72 6f 72 	movabs $0x43203a726f727245,%rax
  402acd:	3a 20 43 
  402ad0:	48 89 45 00          	mov    %rax,0x0(%rbp)
  402ad4:	48 b8 6c 69 65 6e 74 	movabs $0x6e7520746e65696c,%rax
  402adb:	20 75 6e 
  402ade:	48 89 45 08          	mov    %rax,0x8(%rbp)
  402ae2:	48 b8 61 62 6c 65 20 	movabs $0x206f7420656c6261,%rax
  402ae9:	74 6f 20 
  402aec:	48 89 45 10          	mov    %rax,0x10(%rbp)
  402af0:	48 b8 63 72 65 61 74 	movabs $0x7320657461657263,%rax
  402af7:	65 20 73 
  402afa:	48 89 45 18          	mov    %rax,0x18(%rbp)
  402afe:	c7 45 20 6f 63 6b 65 	movl   $0x656b636f,0x20(%rbp)
  402b05:	66 c7 45 24 74 00    	movw   $0x74,0x24(%rbp)
  402b0b:	b8 ff ff ff ff       	mov    $0xffffffff,%eax
  402b10:	e9 23 01 00 00       	jmpq   402c38 <init_driver+0x1c2>
  402b15:	bf 55 35 40 00       	mov    $0x403555,%edi
  402b1a:	e8 f1 e2 ff ff       	callq  400e10 <gethostbyname@plt>
  402b1f:	48 85 c0             	test   %rax,%rax
  402b22:	75 68                	jne    402b8c <init_driver+0x116>
  402b24:	48 b8 45 72 72 6f 72 	movabs $0x44203a726f727245,%rax
  402b2b:	3a 20 44 
  402b2e:	48 89 45 00          	mov    %rax,0x0(%rbp)
  402b32:	48 b8 4e 53 20 69 73 	movabs $0x6e7520736920534e,%rax
  402b39:	20 75 6e 
  402b3c:	48 89 45 08          	mov    %rax,0x8(%rbp)
  402b40:	48 b8 61 62 6c 65 20 	movabs $0x206f7420656c6261,%rax
  402b47:	74 6f 20 
  402b4a:	48 89 45 10          	mov    %rax,0x10(%rbp)
  402b4e:	48 b8 72 65 73 6f 6c 	movabs $0x2065766c6f736572,%rax
  402b55:	76 65 20 
  402b58:	48 89 45 18          	mov    %rax,0x18(%rbp)
  402b5c:	48 b8 73 65 72 76 65 	movabs $0x6120726576726573,%rax
  402b63:	72 20 61 
  402b66:	48 89 45 20          	mov    %rax,0x20(%rbp)
  402b6a:	c7 45 28 64 64 72 65 	movl   $0x65726464,0x28(%rbp)
  402b71:	66 c7 45 2c 73 73    	movw   $0x7373,0x2c(%rbp)
  402b77:	c6 45 2e 00          	movb   $0x0,0x2e(%rbp)
  402b7b:	89 df                	mov    %ebx,%edi
  402b7d:	e8 4e e2 ff ff       	callq  400dd0 <close@plt>
  402b82:	b8 ff ff ff ff       	mov    $0xffffffff,%eax
  402b87:	e9 ac 00 00 00       	jmpq   402c38 <init_driver+0x1c2>
  402b8c:	48 c7 04 24 00 00 00 	movq   $0x0,(%rsp)
  402b93:	00 
  402b94:	48 c7 44 24 08 00 00 	movq   $0x0,0x8(%rsp)
  402b9b:	00 00 
  402b9d:	66 c7 04 24 02 00    	movw   $0x2,(%rsp)
  402ba3:	48 8b 48 18          	mov    0x18(%rax),%rcx
  402ba7:	48 63 50 14          	movslq 0x14(%rax),%rdx
  402bab:	48 8d 74 24 04       	lea    0x4(%rsp),%rsi
  402bb0:	48 8b 39             	mov    (%rcx),%rdi
  402bb3:	e8 e8 e2 ff ff       	callq  400ea0 <bcopy@plt>
  402bb8:	66 c7 44 24 02 3c 9a 	movw   $0x9a3c,0x2(%rsp)
  402bbf:	ba 10 00 00 00       	mov    $0x10,%edx
  402bc4:	48 89 e6             	mov    %rsp,%rsi
  402bc7:	89 df                	mov    %ebx,%edi
  402bc9:	e8 42 e3 ff ff       	callq  400f10 <connect@plt>
  402bce:	85 c0                	test   %eax,%eax
  402bd0:	79 50                	jns    402c22 <init_driver+0x1ac>
  402bd2:	48 b8 45 72 72 6f 72 	movabs $0x55203a726f727245,%rax
  402bd9:	3a 20 55 
  402bdc:	48 89 45 00          	mov    %rax,0x0(%rbp)
  402be0:	48 b8 6e 61 62 6c 65 	movabs $0x6f7420656c62616e,%rax
  402be7:	20 74 6f 
  402bea:	48 89 45 08          	mov    %rax,0x8(%rbp)
  402bee:	48 b8 20 63 6f 6e 6e 	movabs $0x7463656e6e6f6320,%rax
  402bf5:	65 63 74 
  402bf8:	48 89 45 10          	mov    %rax,0x10(%rbp)
  402bfc:	48 b8 20 74 6f 20 73 	movabs $0x76726573206f7420,%rax
  402c03:	65 72 76 
  402c06:	48 89 45 18          	mov    %rax,0x18(%rbp)
  402c0a:	66 c7 45 20 65 72    	movw   $0x7265,0x20(%rbp)
  402c10:	c6 45 22 00          	movb   $0x0,0x22(%rbp)
  402c14:	89 df                	mov    %ebx,%edi
  402c16:	e8 b5 e1 ff ff       	callq  400dd0 <close@plt>
  402c1b:	b8 ff ff ff ff       	mov    $0xffffffff,%eax
  402c20:	eb 16                	jmp    402c38 <init_driver+0x1c2>
  402c22:	89 df                	mov    %ebx,%edi
  402c24:	e8 a7 e1 ff ff       	callq  400dd0 <close@plt>
  402c29:	66 c7 45 00 4f 4b    	movw   $0x4b4f,0x0(%rbp)
  402c2f:	c6 45 02 00          	movb   $0x0,0x2(%rbp)
  402c33:	b8 00 00 00 00       	mov    $0x0,%eax
  402c38:	48 83 c4 18          	add    $0x18,%rsp
  402c3c:	5b                   	pop    %rbx
  402c3d:	5d                   	pop    %rbp
  402c3e:	c3                   	retq   

0000000000402c3f <driver_post>:
  402c3f:	53                   	push   %rbx
  402c40:	48 83 ec 10          	sub    $0x10,%rsp
  402c44:	4c 89 cb             	mov    %r9,%rbx
  402c47:	45 85 c0             	test   %r8d,%r8d
  402c4a:	74 22                	je     402c6e <driver_post+0x2f>
  402c4c:	48 89 ce             	mov    %rcx,%rsi
  402c4f:	bf 62 35 40 00       	mov    $0x403562,%edi
  402c54:	b8 00 00 00 00       	mov    $0x0,%eax
  402c59:	e8 42 e1 ff ff       	callq  400da0 <printf@plt>
  402c5e:	66 c7 03 4f 4b       	movw   $0x4b4f,(%rbx)
  402c63:	c6 43 02 00          	movb   $0x0,0x2(%rbx)
  402c67:	b8 00 00 00 00       	mov    $0x0,%eax
  402c6c:	eb 39                	jmp    402ca7 <driver_post+0x68>
  402c6e:	48 85 ff             	test   %rdi,%rdi
  402c71:	74 26                	je     402c99 <driver_post+0x5a>
  402c73:	80 3f 00             	cmpb   $0x0,(%rdi)
  402c76:	74 21                	je     402c99 <driver_post+0x5a>
  402c78:	4c 89 0c 24          	mov    %r9,(%rsp)
  402c7c:	49 89 c9             	mov    %rcx,%r9
  402c7f:	49 89 d0             	mov    %rdx,%r8
  402c82:	48 89 f9             	mov    %rdi,%rcx
  402c85:	48 89 f2             	mov    %rsi,%rdx
  402c88:	be 9a 3c 00 00       	mov    $0x3c9a,%esi
  402c8d:	bf 55 35 40 00       	mov    $0x403555,%edi
  402c92:	e8 70 f6 ff ff       	callq  402307 <submitr>
  402c97:	eb 0e                	jmp    402ca7 <driver_post+0x68>
  402c99:	66 c7 03 4f 4b       	movw   $0x4b4f,(%rbx)
  402c9e:	c6 43 02 00          	movb   $0x0,0x2(%rbx)
  402ca2:	b8 00 00 00 00       	mov    $0x0,%eax
  402ca7:	48 83 c4 10          	add    $0x10,%rsp
  402cab:	5b                   	pop    %rbx
  402cac:	c3                   	retq   

0000000000402cad <check>:
  402cad:	89 f8                	mov    %edi,%eax
  402caf:	c1 e8 1c             	shr    $0x1c,%eax
  402cb2:	85 c0                	test   %eax,%eax
  402cb4:	74 1d                	je     402cd3 <check+0x26>
  402cb6:	b9 00 00 00 00       	mov    $0x0,%ecx
  402cbb:	eb 0b                	jmp    402cc8 <check+0x1b>
  402cbd:	89 f8                	mov    %edi,%eax
  402cbf:	d3 e8                	shr    %cl,%eax
  402cc1:	3c 0a                	cmp    $0xa,%al
  402cc3:	74 14                	je     402cd9 <check+0x2c>
  402cc5:	83 c1 08             	add    $0x8,%ecx
  402cc8:	83 f9 1f             	cmp    $0x1f,%ecx
  402ccb:	7e f0                	jle    402cbd <check+0x10>
  402ccd:	b8 01 00 00 00       	mov    $0x1,%eax
  402cd2:	c3                   	retq   
  402cd3:	b8 00 00 00 00       	mov    $0x0,%eax
  402cd8:	c3                   	retq   
  402cd9:	b8 00 00 00 00       	mov    $0x0,%eax
  402cde:	c3                   	retq   

0000000000402cdf <gencookie>:
  402cdf:	53                   	push   %rbx
  402ce0:	83 c7 01             	add    $0x1,%edi
  402ce3:	e8 58 e0 ff ff       	callq  400d40 <srandom@plt>
  402ce8:	e8 73 e1 ff ff       	callq  400e60 <random@plt>
  402ced:	89 c3                	mov    %eax,%ebx
  402cef:	89 c7                	mov    %eax,%edi
  402cf1:	e8 b7 ff ff ff       	callq  402cad <check>
  402cf6:	85 c0                	test   %eax,%eax
  402cf8:	74 ee                	je     402ce8 <gencookie+0x9>
  402cfa:	89 d8                	mov    %ebx,%eax
  402cfc:	5b                   	pop    %rbx
  402cfd:	c3                   	retq   
  402cfe:	66 90                	xchg   %ax,%ax

0000000000402d00 <__libc_csu_init>:
  402d00:	41 57                	push   %r15
  402d02:	41 89 ff             	mov    %edi,%r15d
  402d05:	41 56                	push   %r14
  402d07:	49 89 f6             	mov    %rsi,%r14
  402d0a:	41 55                	push   %r13
  402d0c:	49 89 d5             	mov    %rdx,%r13
  402d0f:	41 54                	push   %r12
  402d11:	4c 8d 25 e8 10 20 00 	lea    0x2010e8(%rip),%r12        # 603e00 <__frame_dummy_init_array_entry>
  402d18:	55                   	push   %rbp
  402d19:	48 8d 2d e8 10 20 00 	lea    0x2010e8(%rip),%rbp        # 603e08 <__init_array_end>
  402d20:	53                   	push   %rbx
  402d21:	4c 29 e5             	sub    %r12,%rbp
  402d24:	31 db                	xor    %ebx,%ebx
  402d26:	48 c1 fd 03          	sar    $0x3,%rbp
  402d2a:	48 83 ec 08          	sub    $0x8,%rsp
  402d2e:	e8 b5 df ff ff       	callq  400ce8 <_init>
  402d33:	48 85 ed             	test   %rbp,%rbp
  402d36:	74 1e                	je     402d56 <__libc_csu_init+0x56>
  402d38:	0f 1f 84 00 00 00 00 	nopl   0x0(%rax,%rax,1)
  402d3f:	00 
  402d40:	4c 89 ea             	mov    %r13,%rdx
  402d43:	4c 89 f6             	mov    %r14,%rsi
  402d46:	44 89 ff             	mov    %r15d,%edi
  402d49:	41 ff 14 dc          	callq  *(%r12,%rbx,8)
  402d4d:	48 83 c3 01          	add    $0x1,%rbx
  402d51:	48 39 eb             	cmp    %rbp,%rbx
  402d54:	75 ea                	jne    402d40 <__libc_csu_init+0x40>
  402d56:	48 83 c4 08          	add    $0x8,%rsp
  402d5a:	5b                   	pop    %rbx
  402d5b:	5d                   	pop    %rbp
  402d5c:	41 5c                	pop    %r12
  402d5e:	41 5d                	pop    %r13
  402d60:	41 5e                	pop    %r14
  402d62:	41 5f                	pop    %r15
  402d64:	c3                   	retq   
  402d65:	90                   	nop
  402d66:	66 2e 0f 1f 84 00 00 	nopw   %cs:0x0(%rax,%rax,1)
  402d6d:	00 00 00 

0000000000402d70 <__libc_csu_fini>:
  402d70:	f3 c3                	repz retq 

Disassembly of section .fini:

0000000000402d74 <_fini>:
  402d74:	48 83 ec 08          	sub    $0x8,%rsp
  402d78:	48 83 c4 08          	add    $0x8,%rsp
  402d7c:	c3                   	retq   
