
rtarget:     file format elf64-x86-64


Disassembly of section .init:

0000000000400ce8 <_init>:
  400ce8:	48 83 ec 08          	sub    $0x8,%rsp
  400cec:	48 8b 05 05 43 20 00 	mov    0x204305(%rip),%rax        # 604ff8 <__gmon_start__>
  400cf3:	48 85 c0             	test   %rax,%rax
  400cf6:	74 05                	je     400cfd <_init+0x15>
  400cf8:	e8 33 02 00 00       	callq  400f30 <__gmon_start__@plt>
  400cfd:	48 83 c4 08          	add    $0x8,%rsp
  400d01:	c3                   	retq   

Disassembly of section .plt:

0000000000400d10 <.plt>:
  400d10:	ff 35 f2 42 20 00    	pushq  0x2042f2(%rip)        # 605008 <_GLOBAL_OFFSET_TABLE_+0x8>
  400d16:	ff 25 f4 42 20 00    	jmpq   *0x2042f4(%rip)        # 605010 <_GLOBAL_OFFSET_TABLE_+0x10>
  400d1c:	0f 1f 40 00          	nopl   0x0(%rax)

0000000000400d20 <strcasecmp@plt>:
  400d20:	ff 25 f2 42 20 00    	jmpq   *0x2042f2(%rip)        # 605018 <strcasecmp@GLIBC_2.2.5>
  400d26:	68 00 00 00 00       	pushq  $0x0
  400d2b:	e9 e0 ff ff ff       	jmpq   400d10 <.plt>

0000000000400d30 <__errno_location@plt>:
  400d30:	ff 25 ea 42 20 00    	jmpq   *0x2042ea(%rip)        # 605020 <__errno_location@GLIBC_2.2.5>
  400d36:	68 01 00 00 00       	pushq  $0x1
  400d3b:	e9 d0 ff ff ff       	jmpq   400d10 <.plt>

0000000000400d40 <srandom@plt>:
  400d40:	ff 25 e2 42 20 00    	jmpq   *0x2042e2(%rip)        # 605028 <srandom@GLIBC_2.2.5>
  400d46:	68 02 00 00 00       	pushq  $0x2
  400d4b:	e9 c0 ff ff ff       	jmpq   400d10 <.plt>

0000000000400d50 <strncmp@plt>:
  400d50:	ff 25 da 42 20 00    	jmpq   *0x2042da(%rip)        # 605030 <strncmp@GLIBC_2.2.5>
  400d56:	68 03 00 00 00       	pushq  $0x3
  400d5b:	e9 b0 ff ff ff       	jmpq   400d10 <.plt>

0000000000400d60 <strcpy@plt>:
  400d60:	ff 25 d2 42 20 00    	jmpq   *0x2042d2(%rip)        # 605038 <strcpy@GLIBC_2.2.5>
  400d66:	68 04 00 00 00       	pushq  $0x4
  400d6b:	e9 a0 ff ff ff       	jmpq   400d10 <.plt>

0000000000400d70 <puts@plt>:
  400d70:	ff 25 ca 42 20 00    	jmpq   *0x2042ca(%rip)        # 605040 <puts@GLIBC_2.2.5>
  400d76:	68 05 00 00 00       	pushq  $0x5
  400d7b:	e9 90 ff ff ff       	jmpq   400d10 <.plt>

0000000000400d80 <write@plt>:
  400d80:	ff 25 c2 42 20 00    	jmpq   *0x2042c2(%rip)        # 605048 <write@GLIBC_2.2.5>
  400d86:	68 06 00 00 00       	pushq  $0x6
  400d8b:	e9 80 ff ff ff       	jmpq   400d10 <.plt>

0000000000400d90 <mmap@plt>:
  400d90:	ff 25 ba 42 20 00    	jmpq   *0x2042ba(%rip)        # 605050 <mmap@GLIBC_2.2.5>
  400d96:	68 07 00 00 00       	pushq  $0x7
  400d9b:	e9 70 ff ff ff       	jmpq   400d10 <.plt>

0000000000400da0 <printf@plt>:
  400da0:	ff 25 b2 42 20 00    	jmpq   *0x2042b2(%rip)        # 605058 <printf@GLIBC_2.2.5>
  400da6:	68 08 00 00 00       	pushq  $0x8
  400dab:	e9 60 ff ff ff       	jmpq   400d10 <.plt>

0000000000400db0 <memset@plt>:
  400db0:	ff 25 aa 42 20 00    	jmpq   *0x2042aa(%rip)        # 605060 <memset@GLIBC_2.2.5>
  400db6:	68 09 00 00 00       	pushq  $0x9
  400dbb:	e9 50 ff ff ff       	jmpq   400d10 <.plt>

0000000000400dc0 <alarm@plt>:
  400dc0:	ff 25 a2 42 20 00    	jmpq   *0x2042a2(%rip)        # 605068 <alarm@GLIBC_2.2.5>
  400dc6:	68 0a 00 00 00       	pushq  $0xa
  400dcb:	e9 40 ff ff ff       	jmpq   400d10 <.plt>

0000000000400dd0 <close@plt>:
  400dd0:	ff 25 9a 42 20 00    	jmpq   *0x20429a(%rip)        # 605070 <close@GLIBC_2.2.5>
  400dd6:	68 0b 00 00 00       	pushq  $0xb
  400ddb:	e9 30 ff ff ff       	jmpq   400d10 <.plt>

0000000000400de0 <read@plt>:
  400de0:	ff 25 92 42 20 00    	jmpq   *0x204292(%rip)        # 605078 <read@GLIBC_2.2.5>
  400de6:	68 0c 00 00 00       	pushq  $0xc
  400deb:	e9 20 ff ff ff       	jmpq   400d10 <.plt>

0000000000400df0 <__libc_start_main@plt>:
  400df0:	ff 25 8a 42 20 00    	jmpq   *0x20428a(%rip)        # 605080 <__libc_start_main@GLIBC_2.2.5>
  400df6:	68 0d 00 00 00       	pushq  $0xd
  400dfb:	e9 10 ff ff ff       	jmpq   400d10 <.plt>

0000000000400e00 <signal@plt>:
  400e00:	ff 25 82 42 20 00    	jmpq   *0x204282(%rip)        # 605088 <signal@GLIBC_2.2.5>
  400e06:	68 0e 00 00 00       	pushq  $0xe
  400e0b:	e9 00 ff ff ff       	jmpq   400d10 <.plt>

0000000000400e10 <gethostbyname@plt>:
  400e10:	ff 25 7a 42 20 00    	jmpq   *0x20427a(%rip)        # 605090 <gethostbyname@GLIBC_2.2.5>
  400e16:	68 0f 00 00 00       	pushq  $0xf
  400e1b:	e9 f0 fe ff ff       	jmpq   400d10 <.plt>

0000000000400e20 <fprintf@plt>:
  400e20:	ff 25 72 42 20 00    	jmpq   *0x204272(%rip)        # 605098 <fprintf@GLIBC_2.2.5>
  400e26:	68 10 00 00 00       	pushq  $0x10
  400e2b:	e9 e0 fe ff ff       	jmpq   400d10 <.plt>

0000000000400e30 <strtol@plt>:
  400e30:	ff 25 6a 42 20 00    	jmpq   *0x20426a(%rip)        # 6050a0 <strtol@GLIBC_2.2.5>
  400e36:	68 11 00 00 00       	pushq  $0x11
  400e3b:	e9 d0 fe ff ff       	jmpq   400d10 <.plt>

0000000000400e40 <memcpy@plt>:
  400e40:	ff 25 62 42 20 00    	jmpq   *0x204262(%rip)        # 6050a8 <memcpy@GLIBC_2.14>
  400e46:	68 12 00 00 00       	pushq  $0x12
  400e4b:	e9 c0 fe ff ff       	jmpq   400d10 <.plt>

0000000000400e50 <time@plt>:
  400e50:	ff 25 5a 42 20 00    	jmpq   *0x20425a(%rip)        # 6050b0 <time@GLIBC_2.2.5>
  400e56:	68 13 00 00 00       	pushq  $0x13
  400e5b:	e9 b0 fe ff ff       	jmpq   400d10 <.plt>

0000000000400e60 <random@plt>:
  400e60:	ff 25 52 42 20 00    	jmpq   *0x204252(%rip)        # 6050b8 <random@GLIBC_2.2.5>
  400e66:	68 14 00 00 00       	pushq  $0x14
  400e6b:	e9 a0 fe ff ff       	jmpq   400d10 <.plt>

0000000000400e70 <_IO_getc@plt>:
  400e70:	ff 25 4a 42 20 00    	jmpq   *0x20424a(%rip)        # 6050c0 <_IO_getc@GLIBC_2.2.5>
  400e76:	68 15 00 00 00       	pushq  $0x15
  400e7b:	e9 90 fe ff ff       	jmpq   400d10 <.plt>

0000000000400e80 <__isoc99_sscanf@plt>:
  400e80:	ff 25 42 42 20 00    	jmpq   *0x204242(%rip)        # 6050c8 <__isoc99_sscanf@GLIBC_2.7>
  400e86:	68 16 00 00 00       	pushq  $0x16
  400e8b:	e9 80 fe ff ff       	jmpq   400d10 <.plt>

0000000000400e90 <munmap@plt>:
  400e90:	ff 25 3a 42 20 00    	jmpq   *0x20423a(%rip)        # 6050d0 <munmap@GLIBC_2.2.5>
  400e96:	68 17 00 00 00       	pushq  $0x17
  400e9b:	e9 70 fe ff ff       	jmpq   400d10 <.plt>

0000000000400ea0 <bcopy@plt>:
  400ea0:	ff 25 32 42 20 00    	jmpq   *0x204232(%rip)        # 6050d8 <bcopy@GLIBC_2.2.5>
  400ea6:	68 18 00 00 00       	pushq  $0x18
  400eab:	e9 60 fe ff ff       	jmpq   400d10 <.plt>

0000000000400eb0 <fopen@plt>:
  400eb0:	ff 25 2a 42 20 00    	jmpq   *0x20422a(%rip)        # 6050e0 <fopen@GLIBC_2.2.5>
  400eb6:	68 19 00 00 00       	pushq  $0x19
  400ebb:	e9 50 fe ff ff       	jmpq   400d10 <.plt>

0000000000400ec0 <getopt@plt>:
  400ec0:	ff 25 22 42 20 00    	jmpq   *0x204222(%rip)        # 6050e8 <getopt@GLIBC_2.2.5>
  400ec6:	68 1a 00 00 00       	pushq  $0x1a
  400ecb:	e9 40 fe ff ff       	jmpq   400d10 <.plt>

0000000000400ed0 <strtoul@plt>:
  400ed0:	ff 25 1a 42 20 00    	jmpq   *0x20421a(%rip)        # 6050f0 <strtoul@GLIBC_2.2.5>
  400ed6:	68 1b 00 00 00       	pushq  $0x1b
  400edb:	e9 30 fe ff ff       	jmpq   400d10 <.plt>

0000000000400ee0 <gethostname@plt>:
  400ee0:	ff 25 12 42 20 00    	jmpq   *0x204212(%rip)        # 6050f8 <gethostname@GLIBC_2.2.5>
  400ee6:	68 1c 00 00 00       	pushq  $0x1c
  400eeb:	e9 20 fe ff ff       	jmpq   400d10 <.plt>

0000000000400ef0 <sprintf@plt>:
  400ef0:	ff 25 0a 42 20 00    	jmpq   *0x20420a(%rip)        # 605100 <sprintf@GLIBC_2.2.5>
  400ef6:	68 1d 00 00 00       	pushq  $0x1d
  400efb:	e9 10 fe ff ff       	jmpq   400d10 <.plt>

0000000000400f00 <exit@plt>:
  400f00:	ff 25 02 42 20 00    	jmpq   *0x204202(%rip)        # 605108 <exit@GLIBC_2.2.5>
  400f06:	68 1e 00 00 00       	pushq  $0x1e
  400f0b:	e9 00 fe ff ff       	jmpq   400d10 <.plt>

0000000000400f10 <connect@plt>:
  400f10:	ff 25 fa 41 20 00    	jmpq   *0x2041fa(%rip)        # 605110 <connect@GLIBC_2.2.5>
  400f16:	68 1f 00 00 00       	pushq  $0x1f
  400f1b:	e9 f0 fd ff ff       	jmpq   400d10 <.plt>

0000000000400f20 <socket@plt>:
  400f20:	ff 25 f2 41 20 00    	jmpq   *0x2041f2(%rip)        # 605118 <socket@GLIBC_2.2.5>
  400f26:	68 20 00 00 00       	pushq  $0x20
  400f2b:	e9 e0 fd ff ff       	jmpq   400d10 <.plt>

Disassembly of section .plt.got:

0000000000400f30 <__gmon_start__@plt>:
  400f30:	ff 25 c2 40 20 00    	jmpq   *0x2040c2(%rip)        # 604ff8 <__gmon_start__>
  400f36:	66 90                	xchg   %ax,%ax

Disassembly of section .text:

0000000000400f40 <_start>:
  400f40:	31 ed                	xor    %ebp,%ebp
  400f42:	49 89 d1             	mov    %rdx,%r9
  400f45:	5e                   	pop    %rsi
  400f46:	48 89 e2             	mov    %rsp,%rdx
  400f49:	48 83 e4 f0          	and    $0xfffffffffffffff0,%rsp
  400f4d:	50                   	push   %rax
  400f4e:	54                   	push   %rsp
  400f4f:	49 c7 c0 a0 2e 40 00 	mov    $0x402ea0,%r8
  400f56:	48 c7 c1 30 2e 40 00 	mov    $0x402e30,%rcx
  400f5d:	48 c7 c7 00 12 40 00 	mov    $0x401200,%rdi
  400f64:	e8 87 fe ff ff       	callq  400df0 <__libc_start_main@plt>
  400f69:	f4                   	hlt    
  400f6a:	66 0f 1f 44 00 00    	nopw   0x0(%rax,%rax,1)

0000000000400f70 <deregister_tm_clones>:
  400f70:	b8 97 54 60 00       	mov    $0x605497,%eax
  400f75:	55                   	push   %rbp
  400f76:	48 2d 90 54 60 00    	sub    $0x605490,%rax
  400f7c:	48 83 f8 0e          	cmp    $0xe,%rax
  400f80:	48 89 e5             	mov    %rsp,%rbp
  400f83:	77 02                	ja     400f87 <deregister_tm_clones+0x17>
  400f85:	5d                   	pop    %rbp
  400f86:	c3                   	retq   
  400f87:	b8 00 00 00 00       	mov    $0x0,%eax
  400f8c:	48 85 c0             	test   %rax,%rax
  400f8f:	74 f4                	je     400f85 <deregister_tm_clones+0x15>
  400f91:	5d                   	pop    %rbp
  400f92:	bf 90 54 60 00       	mov    $0x605490,%edi
  400f97:	ff e0                	jmpq   *%rax
  400f99:	0f 1f 80 00 00 00 00 	nopl   0x0(%rax)

0000000000400fa0 <register_tm_clones>:
  400fa0:	b8 90 54 60 00       	mov    $0x605490,%eax
  400fa5:	55                   	push   %rbp
  400fa6:	48 2d 90 54 60 00    	sub    $0x605490,%rax
  400fac:	48 c1 f8 03          	sar    $0x3,%rax
  400fb0:	48 89 e5             	mov    %rsp,%rbp
  400fb3:	48 89 c2             	mov    %rax,%rdx
  400fb6:	48 c1 ea 3f          	shr    $0x3f,%rdx
  400fba:	48 01 d0             	add    %rdx,%rax
  400fbd:	48 d1 f8             	sar    %rax
  400fc0:	75 02                	jne    400fc4 <register_tm_clones+0x24>
  400fc2:	5d                   	pop    %rbp
  400fc3:	c3                   	retq   
  400fc4:	ba 00 00 00 00       	mov    $0x0,%edx
  400fc9:	48 85 d2             	test   %rdx,%rdx
  400fcc:	74 f4                	je     400fc2 <register_tm_clones+0x22>
  400fce:	5d                   	pop    %rbp
  400fcf:	48 89 c6             	mov    %rax,%rsi
  400fd2:	bf 90 54 60 00       	mov    $0x605490,%edi
  400fd7:	ff e2                	jmpq   *%rdx
  400fd9:	0f 1f 80 00 00 00 00 	nopl   0x0(%rax)

0000000000400fe0 <__do_global_dtors_aux>:
  400fe0:	80 3d d1 44 20 00 00 	cmpb   $0x0,0x2044d1(%rip)        # 6054b8 <completed.6385>
  400fe7:	75 11                	jne    400ffa <__do_global_dtors_aux+0x1a>
  400fe9:	55                   	push   %rbp
  400fea:	48 89 e5             	mov    %rsp,%rbp
  400fed:	e8 7e ff ff ff       	callq  400f70 <deregister_tm_clones>
  400ff2:	5d                   	pop    %rbp
  400ff3:	c6 05 be 44 20 00 01 	movb   $0x1,0x2044be(%rip)        # 6054b8 <completed.6385>
  400ffa:	f3 c3                	repz retq 
  400ffc:	0f 1f 40 00          	nopl   0x0(%rax)

0000000000401000 <frame_dummy>:
  401000:	48 83 3d 08 3e 20 00 	cmpq   $0x0,0x203e08(%rip)        # 604e10 <__JCR_END__>
  401007:	00 
  401008:	74 1e                	je     401028 <frame_dummy+0x28>
  40100a:	b8 00 00 00 00       	mov    $0x0,%eax
  40100f:	48 85 c0             	test   %rax,%rax
  401012:	74 14                	je     401028 <frame_dummy+0x28>
  401014:	55                   	push   %rbp
  401015:	bf 10 4e 60 00       	mov    $0x604e10,%edi
  40101a:	48 89 e5             	mov    %rsp,%rbp
  40101d:	ff d0                	callq  *%rax
  40101f:	5d                   	pop    %rbp
  401020:	e9 7b ff ff ff       	jmpq   400fa0 <register_tm_clones>
  401025:	0f 1f 00             	nopl   (%rax)
  401028:	e9 73 ff ff ff       	jmpq   400fa0 <register_tm_clones>
  40102d:	0f 1f 00             	nopl   (%rax)

0000000000401030 <usage>:
  401030:	48 83 ec 08          	sub    $0x8,%rsp
  401034:	48 89 fe             	mov    %rdi,%rsi
  401037:	83 3d aa 44 20 00 00 	cmpl   $0x0,0x2044aa(%rip)        # 6054e8 <is_checker>
  40103e:	74 39                	je     401079 <usage+0x49>
  401040:	bf b8 2e 40 00       	mov    $0x402eb8,%edi
  401045:	b8 00 00 00 00       	mov    $0x0,%eax
  40104a:	e8 51 fd ff ff       	callq  400da0 <printf@plt>
  40104f:	bf f0 2e 40 00       	mov    $0x402ef0,%edi
  401054:	e8 17 fd ff ff       	callq  400d70 <puts@plt>
  401059:	bf 68 30 40 00       	mov    $0x403068,%edi
  40105e:	e8 0d fd ff ff       	callq  400d70 <puts@plt>
  401063:	bf 18 2f 40 00       	mov    $0x402f18,%edi
  401068:	e8 03 fd ff ff       	callq  400d70 <puts@plt>
  40106d:	bf 82 30 40 00       	mov    $0x403082,%edi
  401072:	e8 f9 fc ff ff       	callq  400d70 <puts@plt>
  401077:	eb 2d                	jmp    4010a6 <usage+0x76>
  401079:	bf 9e 30 40 00       	mov    $0x40309e,%edi
  40107e:	b8 00 00 00 00       	mov    $0x0,%eax
  401083:	e8 18 fd ff ff       	callq  400da0 <printf@plt>
  401088:	bf 40 2f 40 00       	mov    $0x402f40,%edi
  40108d:	e8 de fc ff ff       	callq  400d70 <puts@plt>
  401092:	bf 68 2f 40 00       	mov    $0x402f68,%edi
  401097:	e8 d4 fc ff ff       	callq  400d70 <puts@plt>
  40109c:	bf bc 30 40 00       	mov    $0x4030bc,%edi
  4010a1:	e8 ca fc ff ff       	callq  400d70 <puts@plt>
  4010a6:	bf 00 00 00 00       	mov    $0x0,%edi
  4010ab:	e8 50 fe ff ff       	callq  400f00 <exit@plt>

00000000004010b0 <initialize_target>:
  4010b0:	55                   	push   %rbp
  4010b1:	53                   	push   %rbx
  4010b2:	48 81 ec 08 21 00 00 	sub    $0x2108,%rsp
  4010b9:	89 f5                	mov    %esi,%ebp
  4010bb:	89 3d 17 44 20 00    	mov    %edi,0x204417(%rip)        # 6054d8 <check_level>
  4010c1:	8b 3d 81 40 20 00    	mov    0x204081(%rip),%edi        # 605148 <target_id>
  4010c7:	e8 43 1d 00 00       	callq  402e0f <gencookie>
  4010cc:	89 05 12 44 20 00    	mov    %eax,0x204412(%rip)        # 6054e4 <cookie>
  4010d2:	89 c7                	mov    %eax,%edi
  4010d4:	e8 36 1d 00 00       	callq  402e0f <gencookie>
  4010d9:	89 05 01 44 20 00    	mov    %eax,0x204401(%rip)        # 6054e0 <authkey>
  4010df:	8b 05 63 40 20 00    	mov    0x204063(%rip),%eax        # 605148 <target_id>
  4010e5:	8d 78 01             	lea    0x1(%rax),%edi
  4010e8:	e8 53 fc ff ff       	callq  400d40 <srandom@plt>
  4010ed:	e8 6e fd ff ff       	callq  400e60 <random@plt>
  4010f2:	89 c7                	mov    %eax,%edi
  4010f4:	e8 ca 02 00 00       	callq  4013c3 <scramble>
  4010f9:	89 c3                	mov    %eax,%ebx
  4010fb:	85 ed                	test   %ebp,%ebp
  4010fd:	74 18                	je     401117 <initialize_target+0x67>
  4010ff:	bf 00 00 00 00       	mov    $0x0,%edi
  401104:	e8 47 fd ff ff       	callq  400e50 <time@plt>
  401109:	89 c7                	mov    %eax,%edi
  40110b:	e8 30 fc ff ff       	callq  400d40 <srandom@plt>
  401110:	e8 4b fd ff ff       	callq  400e60 <random@plt>
  401115:	eb 05                	jmp    40111c <initialize_target+0x6c>
  401117:	b8 00 00 00 00       	mov    $0x0,%eax
  40111c:	01 c3                	add    %eax,%ebx
  40111e:	0f b7 db             	movzwl %bx,%ebx
  401121:	8d 04 dd 00 01 00 00 	lea    0x100(,%rbx,8),%eax
  401128:	89 c0                	mov    %eax,%eax
  40112a:	48 89 05 4f 43 20 00 	mov    %rax,0x20434f(%rip)        # 605480 <buf_offset>
  401131:	c6 05 d0 4f 20 00 72 	movb   $0x72,0x204fd0(%rip)        # 606108 <target_prefix>
  401138:	83 3d 49 43 20 00 00 	cmpl   $0x0,0x204349(%rip)        # 605488 <notify>
  40113f:	0f 84 b1 00 00 00    	je     4011f6 <initialize_target+0x146>
  401145:	83 3d 9c 43 20 00 00 	cmpl   $0x0,0x20439c(%rip)        # 6054e8 <is_checker>
  40114c:	0f 85 a4 00 00 00    	jne    4011f6 <initialize_target+0x146>
  401152:	be 00 01 00 00       	mov    $0x100,%esi
  401157:	48 89 e7             	mov    %rsp,%rdi
  40115a:	e8 81 fd ff ff       	callq  400ee0 <gethostname@plt>
  40115f:	85 c0                	test   %eax,%eax
  401161:	74 25                	je     401188 <initialize_target+0xd8>
  401163:	bf 98 2f 40 00       	mov    $0x402f98,%edi
  401168:	e8 03 fc ff ff       	callq  400d70 <puts@plt>
  40116d:	bf 08 00 00 00       	mov    $0x8,%edi
  401172:	e8 89 fd ff ff       	callq  400f00 <exit@plt>
  401177:	48 89 e6             	mov    %rsp,%rsi
  40117a:	e8 a1 fb ff ff       	callq  400d20 <strcasecmp@plt>
  40117f:	85 c0                	test   %eax,%eax
  401181:	74 21                	je     4011a4 <initialize_target+0xf4>
  401183:	83 c3 01             	add    $0x1,%ebx
  401186:	eb 05                	jmp    40118d <initialize_target+0xdd>
  401188:	bb 00 00 00 00       	mov    $0x0,%ebx
  40118d:	48 63 c3             	movslq %ebx,%rax
  401190:	48 8b 3c c5 60 51 60 	mov    0x605160(,%rax,8),%rdi
  401197:	00 
  401198:	48 85 ff             	test   %rdi,%rdi
  40119b:	75 da                	jne    401177 <initialize_target+0xc7>
  40119d:	b8 00 00 00 00       	mov    $0x0,%eax
  4011a2:	eb 05                	jmp    4011a9 <initialize_target+0xf9>
  4011a4:	b8 01 00 00 00       	mov    $0x1,%eax
  4011a9:	85 c0                	test   %eax,%eax
  4011ab:	75 17                	jne    4011c4 <initialize_target+0x114>
  4011ad:	48 89 e6             	mov    %rsp,%rsi
  4011b0:	bf d0 2f 40 00       	mov    $0x402fd0,%edi
  4011b5:	e8 e6 fb ff ff       	callq  400da0 <printf@plt>
  4011ba:	bf 08 00 00 00       	mov    $0x8,%edi
  4011bf:	e8 3c fd ff ff       	callq  400f00 <exit@plt>
  4011c4:	48 8d bc 24 00 01 00 	lea    0x100(%rsp),%rdi
  4011cb:	00 
  4011cc:	e8 d5 19 00 00       	callq  402ba6 <init_driver>
  4011d1:	85 c0                	test   %eax,%eax
  4011d3:	79 21                	jns    4011f6 <initialize_target+0x146>
  4011d5:	48 8d b4 24 00 01 00 	lea    0x100(%rsp),%rsi
  4011dc:	00 
  4011dd:	bf 10 30 40 00       	mov    $0x403010,%edi
  4011e2:	b8 00 00 00 00       	mov    $0x0,%eax
  4011e7:	e8 b4 fb ff ff       	callq  400da0 <printf@plt>
  4011ec:	bf 08 00 00 00       	mov    $0x8,%edi
  4011f1:	e8 0a fd ff ff       	callq  400f00 <exit@plt>
  4011f6:	48 81 c4 08 21 00 00 	add    $0x2108,%rsp
  4011fd:	5b                   	pop    %rbx
  4011fe:	5d                   	pop    %rbp
  4011ff:	c3                   	retq   

0000000000401200 <main>:
  401200:	41 56                	push   %r14
  401202:	41 55                	push   %r13
  401204:	41 54                	push   %r12
  401206:	55                   	push   %rbp
  401207:	53                   	push   %rbx
  401208:	41 89 fc             	mov    %edi,%r12d
  40120b:	48 89 f3             	mov    %rsi,%rbx
  40120e:	be a1 1f 40 00       	mov    $0x401fa1,%esi
  401213:	bf 0b 00 00 00       	mov    $0xb,%edi
  401218:	e8 e3 fb ff ff       	callq  400e00 <signal@plt>
  40121d:	be 53 1f 40 00       	mov    $0x401f53,%esi
  401222:	bf 07 00 00 00       	mov    $0x7,%edi
  401227:	e8 d4 fb ff ff       	callq  400e00 <signal@plt>
  40122c:	be ef 1f 40 00       	mov    $0x401fef,%esi
  401231:	bf 04 00 00 00       	mov    $0x4,%edi
  401236:	e8 c5 fb ff ff       	callq  400e00 <signal@plt>
  40123b:	83 3d a6 42 20 00 00 	cmpl   $0x0,0x2042a6(%rip)        # 6054e8 <is_checker>
  401242:	74 20                	je     401264 <main+0x64>
  401244:	be 3d 20 40 00       	mov    $0x40203d,%esi
  401249:	bf 0e 00 00 00       	mov    $0xe,%edi
  40124e:	e8 ad fb ff ff       	callq  400e00 <signal@plt>
  401253:	bf 05 00 00 00       	mov    $0x5,%edi
  401258:	e8 63 fb ff ff       	callq  400dc0 <alarm@plt>
  40125d:	bd da 30 40 00       	mov    $0x4030da,%ebp
  401262:	eb 05                	jmp    401269 <main+0x69>
  401264:	bd d5 30 40 00       	mov    $0x4030d5,%ebp
  401269:	48 8b 05 30 42 20 00 	mov    0x204230(%rip),%rax        # 6054a0 <stdin@@GLIBC_2.2.5>
  401270:	48 89 05 59 42 20 00 	mov    %rax,0x204259(%rip)        # 6054d0 <infile>
  401277:	41 bd 00 00 00 00    	mov    $0x0,%r13d
  40127d:	41 be 00 00 00 00    	mov    $0x0,%r14d
  401283:	e9 b9 00 00 00       	jmpq   401341 <main+0x141>
  401288:	83 e8 61             	sub    $0x61,%eax
  40128b:	3c 10                	cmp    $0x10,%al
  40128d:	0f 87 93 00 00 00    	ja     401326 <main+0x126>
  401293:	0f b6 c0             	movzbl %al,%eax
  401296:	ff 24 c5 20 31 40 00 	jmpq   *0x403120(,%rax,8)
  40129d:	48 8b 3b             	mov    (%rbx),%rdi
  4012a0:	e8 8b fd ff ff       	callq  401030 <usage>
  4012a5:	be 7d 33 40 00       	mov    $0x40337d,%esi
  4012aa:	48 8b 3d f7 41 20 00 	mov    0x2041f7(%rip),%rdi        # 6054a8 <optarg@@GLIBC_2.2.5>
  4012b1:	e8 fa fb ff ff       	callq  400eb0 <fopen@plt>
  4012b6:	48 89 05 13 42 20 00 	mov    %rax,0x204213(%rip)        # 6054d0 <infile>
  4012bd:	48 85 c0             	test   %rax,%rax
  4012c0:	75 7f                	jne    401341 <main+0x141>
  4012c2:	48 8b 15 df 41 20 00 	mov    0x2041df(%rip),%rdx        # 6054a8 <optarg@@GLIBC_2.2.5>
  4012c9:	be e2 30 40 00       	mov    $0x4030e2,%esi
  4012ce:	48 8b 3d db 41 20 00 	mov    0x2041db(%rip),%rdi        # 6054b0 <stderr@@GLIBC_2.2.5>
  4012d5:	e8 46 fb ff ff       	callq  400e20 <fprintf@plt>
  4012da:	b8 01 00 00 00       	mov    $0x1,%eax
  4012df:	e9 d6 00 00 00       	jmpq   4013ba <main+0x1ba>
  4012e4:	ba 10 00 00 00       	mov    $0x10,%edx
  4012e9:	be 00 00 00 00       	mov    $0x0,%esi
  4012ee:	48 8b 3d b3 41 20 00 	mov    0x2041b3(%rip),%rdi        # 6054a8 <optarg@@GLIBC_2.2.5>
  4012f5:	e8 d6 fb ff ff       	callq  400ed0 <strtoul@plt>
  4012fa:	41 89 c6             	mov    %eax,%r14d
  4012fd:	eb 42                	jmp    401341 <main+0x141>
  4012ff:	ba 0a 00 00 00       	mov    $0xa,%edx
  401304:	be 00 00 00 00       	mov    $0x0,%esi
  401309:	48 8b 3d 98 41 20 00 	mov    0x204198(%rip),%rdi        # 6054a8 <optarg@@GLIBC_2.2.5>
  401310:	e8 1b fb ff ff       	callq  400e30 <strtol@plt>
  401315:	41 89 c5             	mov    %eax,%r13d
  401318:	eb 27                	jmp    401341 <main+0x141>
  40131a:	c7 05 64 41 20 00 00 	movl   $0x0,0x204164(%rip)        # 605488 <notify>
  401321:	00 00 00 
  401324:	eb 1b                	jmp    401341 <main+0x141>
  401326:	40 0f be f6          	movsbl %sil,%esi
  40132a:	bf ff 30 40 00       	mov    $0x4030ff,%edi
  40132f:	b8 00 00 00 00       	mov    $0x0,%eax
  401334:	e8 67 fa ff ff       	callq  400da0 <printf@plt>
  401339:	48 8b 3b             	mov    (%rbx),%rdi
  40133c:	e8 ef fc ff ff       	callq  401030 <usage>
  401341:	48 89 ea             	mov    %rbp,%rdx
  401344:	48 89 de             	mov    %rbx,%rsi
  401347:	44 89 e7             	mov    %r12d,%edi
  40134a:	e8 71 fb ff ff       	callq  400ec0 <getopt@plt>
  40134f:	89 c6                	mov    %eax,%esi
  401351:	3c ff                	cmp    $0xff,%al
  401353:	0f 85 2f ff ff ff    	jne    401288 <main+0x88>
  401359:	be 01 00 00 00       	mov    $0x1,%esi
  40135e:	44 89 ef             	mov    %r13d,%edi
  401361:	e8 4a fd ff ff       	callq  4010b0 <initialize_target>
  401366:	83 3d 7b 41 20 00 00 	cmpl   $0x0,0x20417b(%rip)        # 6054e8 <is_checker>
  40136d:	74 25                	je     401394 <main+0x194>
  40136f:	44 3b 35 6a 41 20 00 	cmp    0x20416a(%rip),%r14d        # 6054e0 <authkey>
  401376:	74 1c                	je     401394 <main+0x194>
  401378:	44 89 f6             	mov    %r14d,%esi
  40137b:	bf 38 30 40 00       	mov    $0x403038,%edi
  401380:	b8 00 00 00 00       	mov    $0x0,%eax
  401385:	e8 16 fa ff ff       	callq  400da0 <printf@plt>
  40138a:	b8 00 00 00 00       	mov    $0x0,%eax
  40138f:	e8 c7 08 00 00       	callq  401c5b <check_fail>
  401394:	8b 35 4a 41 20 00    	mov    0x20414a(%rip),%esi        # 6054e4 <cookie>
  40139a:	bf 12 31 40 00       	mov    $0x403112,%edi
  40139f:	b8 00 00 00 00       	mov    $0x0,%eax
  4013a4:	e8 f7 f9 ff ff       	callq  400da0 <printf@plt>
  4013a9:	48 8b 3d d0 40 20 00 	mov    0x2040d0(%rip),%rdi        # 605480 <buf_offset>
  4013b0:	e8 d6 0c 00 00       	callq  40208b <launch>
  4013b5:	b8 00 00 00 00       	mov    $0x0,%eax
  4013ba:	5b                   	pop    %rbx
  4013bb:	5d                   	pop    %rbp
  4013bc:	41 5c                	pop    %r12
  4013be:	41 5d                	pop    %r13
  4013c0:	41 5e                	pop    %r14
  4013c2:	c3                   	retq   

00000000004013c3 <scramble>:
  4013c3:	b8 00 00 00 00       	mov    $0x0,%eax
  4013c8:	eb 11                	jmp    4013db <scramble+0x18>
  4013ca:	69 c8 74 9a 00 00    	imul   $0x9a74,%eax,%ecx
  4013d0:	01 f9                	add    %edi,%ecx
  4013d2:	89 c2                	mov    %eax,%edx
  4013d4:	89 4c 94 d0          	mov    %ecx,-0x30(%rsp,%rdx,4)
  4013d8:	83 c0 01             	add    $0x1,%eax
  4013db:	83 f8 09             	cmp    $0x9,%eax
  4013de:	76 ea                	jbe    4013ca <scramble+0x7>
  4013e0:	8b 44 24 dc          	mov    -0x24(%rsp),%eax
  4013e4:	69 c0 8f 5e 00 00    	imul   $0x5e8f,%eax,%eax
  4013ea:	89 44 24 dc          	mov    %eax,-0x24(%rsp)
  4013ee:	8b 44 24 e0          	mov    -0x20(%rsp),%eax
  4013f2:	69 c0 fa 67 00 00    	imul   $0x67fa,%eax,%eax
  4013f8:	89 44 24 e0          	mov    %eax,-0x20(%rsp)
  4013fc:	8b 44 24 d8          	mov    -0x28(%rsp),%eax
  401400:	69 c0 af 9a 00 00    	imul   $0x9aaf,%eax,%eax
  401406:	89 44 24 d8          	mov    %eax,-0x28(%rsp)
  40140a:	8b 44 24 e0          	mov    -0x20(%rsp),%eax
  40140e:	69 c0 12 1b 00 00    	imul   $0x1b12,%eax,%eax
  401414:	89 44 24 e0          	mov    %eax,-0x20(%rsp)
  401418:	8b 44 24 dc          	mov    -0x24(%rsp),%eax
  40141c:	69 c0 99 8f 00 00    	imul   $0x8f99,%eax,%eax
  401422:	89 44 24 dc          	mov    %eax,-0x24(%rsp)
  401426:	8b 44 24 d4          	mov    -0x2c(%rsp),%eax
  40142a:	69 c0 61 14 00 00    	imul   $0x1461,%eax,%eax
  401430:	89 44 24 d4          	mov    %eax,-0x2c(%rsp)
  401434:	8b 44 24 d8          	mov    -0x28(%rsp),%eax
  401438:	69 c0 90 cf 00 00    	imul   $0xcf90,%eax,%eax
  40143e:	89 44 24 d8          	mov    %eax,-0x28(%rsp)
  401442:	8b 44 24 d0          	mov    -0x30(%rsp),%eax
  401446:	69 c0 67 f0 00 00    	imul   $0xf067,%eax,%eax
  40144c:	89 44 24 d0          	mov    %eax,-0x30(%rsp)
  401450:	8b 44 24 e8          	mov    -0x18(%rsp),%eax
  401454:	69 c0 73 c7 00 00    	imul   $0xc773,%eax,%eax
  40145a:	89 44 24 e8          	mov    %eax,-0x18(%rsp)
  40145e:	8b 44 24 f0          	mov    -0x10(%rsp),%eax
  401462:	69 c0 0f 26 00 00    	imul   $0x260f,%eax,%eax
  401468:	89 44 24 f0          	mov    %eax,-0x10(%rsp)
  40146c:	8b 44 24 e8          	mov    -0x18(%rsp),%eax
  401470:	69 c0 84 5a 00 00    	imul   $0x5a84,%eax,%eax
  401476:	89 44 24 e8          	mov    %eax,-0x18(%rsp)
  40147a:	8b 44 24 d4          	mov    -0x2c(%rsp),%eax
  40147e:	69 c0 e0 34 00 00    	imul   $0x34e0,%eax,%eax
  401484:	89 44 24 d4          	mov    %eax,-0x2c(%rsp)
  401488:	8b 44 24 f0          	mov    -0x10(%rsp),%eax
  40148c:	69 c0 62 3c 00 00    	imul   $0x3c62,%eax,%eax
  401492:	89 44 24 f0          	mov    %eax,-0x10(%rsp)
  401496:	8b 44 24 e0          	mov    -0x20(%rsp),%eax
  40149a:	69 c0 88 90 00 00    	imul   $0x9088,%eax,%eax
  4014a0:	89 44 24 e0          	mov    %eax,-0x20(%rsp)
  4014a4:	8b 44 24 f0          	mov    -0x10(%rsp),%eax
  4014a8:	69 c0 59 1a 00 00    	imul   $0x1a59,%eax,%eax
  4014ae:	89 44 24 f0          	mov    %eax,-0x10(%rsp)
  4014b2:	8b 44 24 f0          	mov    -0x10(%rsp),%eax
  4014b6:	69 c0 35 b2 00 00    	imul   $0xb235,%eax,%eax
  4014bc:	89 44 24 f0          	mov    %eax,-0x10(%rsp)
  4014c0:	8b 44 24 ec          	mov    -0x14(%rsp),%eax
  4014c4:	69 c0 cb d8 00 00    	imul   $0xd8cb,%eax,%eax
  4014ca:	89 44 24 ec          	mov    %eax,-0x14(%rsp)
  4014ce:	8b 44 24 f0          	mov    -0x10(%rsp),%eax
  4014d2:	69 c0 ab ad 00 00    	imul   $0xadab,%eax,%eax
  4014d8:	89 44 24 f0          	mov    %eax,-0x10(%rsp)
  4014dc:	8b 44 24 d4          	mov    -0x2c(%rsp),%eax
  4014e0:	69 c0 40 61 00 00    	imul   $0x6140,%eax,%eax
  4014e6:	89 44 24 d4          	mov    %eax,-0x2c(%rsp)
  4014ea:	8b 44 24 f4          	mov    -0xc(%rsp),%eax
  4014ee:	69 c0 fe f6 00 00    	imul   $0xf6fe,%eax,%eax
  4014f4:	89 44 24 f4          	mov    %eax,-0xc(%rsp)
  4014f8:	8b 44 24 dc          	mov    -0x24(%rsp),%eax
  4014fc:	69 c0 3b 58 00 00    	imul   $0x583b,%eax,%eax
  401502:	89 44 24 dc          	mov    %eax,-0x24(%rsp)
  401506:	8b 44 24 dc          	mov    -0x24(%rsp),%eax
  40150a:	69 c0 c2 f3 00 00    	imul   $0xf3c2,%eax,%eax
  401510:	89 44 24 dc          	mov    %eax,-0x24(%rsp)
  401514:	8b 44 24 e4          	mov    -0x1c(%rsp),%eax
  401518:	69 c0 fa 5a 00 00    	imul   $0x5afa,%eax,%eax
  40151e:	89 44 24 e4          	mov    %eax,-0x1c(%rsp)
  401522:	8b 44 24 dc          	mov    -0x24(%rsp),%eax
  401526:	69 c0 de 8f 00 00    	imul   $0x8fde,%eax,%eax
  40152c:	89 44 24 dc          	mov    %eax,-0x24(%rsp)
  401530:	8b 44 24 e4          	mov    -0x1c(%rsp),%eax
  401534:	69 c0 f8 a9 00 00    	imul   $0xa9f8,%eax,%eax
  40153a:	89 44 24 e4          	mov    %eax,-0x1c(%rsp)
  40153e:	8b 44 24 d8          	mov    -0x28(%rsp),%eax
  401542:	69 c0 cf 1f 00 00    	imul   $0x1fcf,%eax,%eax
  401548:	89 44 24 d8          	mov    %eax,-0x28(%rsp)
  40154c:	8b 44 24 f4          	mov    -0xc(%rsp),%eax
  401550:	69 c0 29 47 00 00    	imul   $0x4729,%eax,%eax
  401556:	89 44 24 f4          	mov    %eax,-0xc(%rsp)
  40155a:	8b 44 24 e4          	mov    -0x1c(%rsp),%eax
  40155e:	69 c0 7d 68 00 00    	imul   $0x687d,%eax,%eax
  401564:	89 44 24 e4          	mov    %eax,-0x1c(%rsp)
  401568:	8b 44 24 f4          	mov    -0xc(%rsp),%eax
  40156c:	69 c0 be 9a 00 00    	imul   $0x9abe,%eax,%eax
  401572:	89 44 24 f4          	mov    %eax,-0xc(%rsp)
  401576:	8b 44 24 ec          	mov    -0x14(%rsp),%eax
  40157a:	69 c0 4c 9b 00 00    	imul   $0x9b4c,%eax,%eax
  401580:	89 44 24 ec          	mov    %eax,-0x14(%rsp)
  401584:	8b 44 24 d4          	mov    -0x2c(%rsp),%eax
  401588:	69 c0 27 3c 00 00    	imul   $0x3c27,%eax,%eax
  40158e:	89 44 24 d4          	mov    %eax,-0x2c(%rsp)
  401592:	8b 44 24 e0          	mov    -0x20(%rsp),%eax
  401596:	69 c0 00 2e 00 00    	imul   $0x2e00,%eax,%eax
  40159c:	89 44 24 e0          	mov    %eax,-0x20(%rsp)
  4015a0:	8b 44 24 dc          	mov    -0x24(%rsp),%eax
  4015a4:	69 c0 b0 67 00 00    	imul   $0x67b0,%eax,%eax
  4015aa:	89 44 24 dc          	mov    %eax,-0x24(%rsp)
  4015ae:	8b 44 24 f0          	mov    -0x10(%rsp),%eax
  4015b2:	69 c0 6c 88 00 00    	imul   $0x886c,%eax,%eax
  4015b8:	89 44 24 f0          	mov    %eax,-0x10(%rsp)
  4015bc:	8b 44 24 f4          	mov    -0xc(%rsp),%eax
  4015c0:	69 c0 68 a4 00 00    	imul   $0xa468,%eax,%eax
  4015c6:	89 44 24 f4          	mov    %eax,-0xc(%rsp)
  4015ca:	8b 44 24 f4          	mov    -0xc(%rsp),%eax
  4015ce:	69 c0 ca b9 00 00    	imul   $0xb9ca,%eax,%eax
  4015d4:	89 44 24 f4          	mov    %eax,-0xc(%rsp)
  4015d8:	8b 44 24 d8          	mov    -0x28(%rsp),%eax
  4015dc:	69 c0 ca 8a 00 00    	imul   $0x8aca,%eax,%eax
  4015e2:	89 44 24 d8          	mov    %eax,-0x28(%rsp)
  4015e6:	8b 44 24 d8          	mov    -0x28(%rsp),%eax
  4015ea:	69 c0 6f 24 00 00    	imul   $0x246f,%eax,%eax
  4015f0:	89 44 24 d8          	mov    %eax,-0x28(%rsp)
  4015f4:	8b 44 24 d4          	mov    -0x2c(%rsp),%eax
  4015f8:	69 c0 b6 91 00 00    	imul   $0x91b6,%eax,%eax
  4015fe:	89 44 24 d4          	mov    %eax,-0x2c(%rsp)
  401602:	8b 44 24 e0          	mov    -0x20(%rsp),%eax
  401606:	69 c0 31 08 00 00    	imul   $0x831,%eax,%eax
  40160c:	89 44 24 e0          	mov    %eax,-0x20(%rsp)
  401610:	8b 44 24 f0          	mov    -0x10(%rsp),%eax
  401614:	69 c0 3a 6a 00 00    	imul   $0x6a3a,%eax,%eax
  40161a:	89 44 24 f0          	mov    %eax,-0x10(%rsp)
  40161e:	8b 44 24 d4          	mov    -0x2c(%rsp),%eax
  401622:	69 c0 2a 40 00 00    	imul   $0x402a,%eax,%eax
  401628:	89 44 24 d4          	mov    %eax,-0x2c(%rsp)
  40162c:	8b 44 24 e4          	mov    -0x1c(%rsp),%eax
  401630:	69 c0 b0 7c 00 00    	imul   $0x7cb0,%eax,%eax
  401636:	89 44 24 e4          	mov    %eax,-0x1c(%rsp)
  40163a:	8b 44 24 f0          	mov    -0x10(%rsp),%eax
  40163e:	69 c0 ee 34 00 00    	imul   $0x34ee,%eax,%eax
  401644:	89 44 24 f0          	mov    %eax,-0x10(%rsp)
  401648:	8b 44 24 f0          	mov    -0x10(%rsp),%eax
  40164c:	69 c0 ac a1 00 00    	imul   $0xa1ac,%eax,%eax
  401652:	89 44 24 f0          	mov    %eax,-0x10(%rsp)
  401656:	8b 44 24 e8          	mov    -0x18(%rsp),%eax
  40165a:	69 c0 85 cc 00 00    	imul   $0xcc85,%eax,%eax
  401660:	89 44 24 e8          	mov    %eax,-0x18(%rsp)
  401664:	8b 44 24 e4          	mov    -0x1c(%rsp),%eax
  401668:	69 c0 bb 1d 00 00    	imul   $0x1dbb,%eax,%eax
  40166e:	89 44 24 e4          	mov    %eax,-0x1c(%rsp)
  401672:	8b 44 24 d0          	mov    -0x30(%rsp),%eax
  401676:	69 c0 c6 f2 00 00    	imul   $0xf2c6,%eax,%eax
  40167c:	89 44 24 d0          	mov    %eax,-0x30(%rsp)
  401680:	8b 44 24 ec          	mov    -0x14(%rsp),%eax
  401684:	69 c0 30 d6 00 00    	imul   $0xd630,%eax,%eax
  40168a:	89 44 24 ec          	mov    %eax,-0x14(%rsp)
  40168e:	8b 44 24 dc          	mov    -0x24(%rsp),%eax
  401692:	69 c0 5c 4e 00 00    	imul   $0x4e5c,%eax,%eax
  401698:	89 44 24 dc          	mov    %eax,-0x24(%rsp)
  40169c:	8b 44 24 f0          	mov    -0x10(%rsp),%eax
  4016a0:	69 c0 9e fa 00 00    	imul   $0xfa9e,%eax,%eax
  4016a6:	89 44 24 f0          	mov    %eax,-0x10(%rsp)
  4016aa:	8b 44 24 d8          	mov    -0x28(%rsp),%eax
  4016ae:	69 c0 3c 77 00 00    	imul   $0x773c,%eax,%eax
  4016b4:	89 44 24 d8          	mov    %eax,-0x28(%rsp)
  4016b8:	8b 44 24 f4          	mov    -0xc(%rsp),%eax
  4016bc:	69 c0 b3 b5 00 00    	imul   $0xb5b3,%eax,%eax
  4016c2:	89 44 24 f4          	mov    %eax,-0xc(%rsp)
  4016c6:	8b 44 24 d4          	mov    -0x2c(%rsp),%eax
  4016ca:	69 c0 2d 6b 00 00    	imul   $0x6b2d,%eax,%eax
  4016d0:	89 44 24 d4          	mov    %eax,-0x2c(%rsp)
  4016d4:	8b 44 24 e0          	mov    -0x20(%rsp),%eax
  4016d8:	69 c0 f8 4f 00 00    	imul   $0x4ff8,%eax,%eax
  4016de:	89 44 24 e0          	mov    %eax,-0x20(%rsp)
  4016e2:	8b 44 24 d0          	mov    -0x30(%rsp),%eax
  4016e6:	69 c0 17 83 00 00    	imul   $0x8317,%eax,%eax
  4016ec:	89 44 24 d0          	mov    %eax,-0x30(%rsp)
  4016f0:	8b 44 24 e4          	mov    -0x1c(%rsp),%eax
  4016f4:	69 c0 5f 9b 00 00    	imul   $0x9b5f,%eax,%eax
  4016fa:	89 44 24 e4          	mov    %eax,-0x1c(%rsp)
  4016fe:	8b 44 24 e4          	mov    -0x1c(%rsp),%eax
  401702:	69 c0 95 6b 00 00    	imul   $0x6b95,%eax,%eax
  401708:	89 44 24 e4          	mov    %eax,-0x1c(%rsp)
  40170c:	8b 44 24 d0          	mov    -0x30(%rsp),%eax
  401710:	69 c0 e8 6b 00 00    	imul   $0x6be8,%eax,%eax
  401716:	89 44 24 d0          	mov    %eax,-0x30(%rsp)
  40171a:	8b 44 24 e8          	mov    -0x18(%rsp),%eax
  40171e:	69 c0 7d 2f 00 00    	imul   $0x2f7d,%eax,%eax
  401724:	89 44 24 e8          	mov    %eax,-0x18(%rsp)
  401728:	8b 44 24 d8          	mov    -0x28(%rsp),%eax
  40172c:	69 c0 be 70 00 00    	imul   $0x70be,%eax,%eax
  401732:	89 44 24 d8          	mov    %eax,-0x28(%rsp)
  401736:	8b 44 24 d8          	mov    -0x28(%rsp),%eax
  40173a:	69 c0 68 eb 00 00    	imul   $0xeb68,%eax,%eax
  401740:	89 44 24 d8          	mov    %eax,-0x28(%rsp)
  401744:	8b 44 24 ec          	mov    -0x14(%rsp),%eax
  401748:	69 c0 88 f6 00 00    	imul   $0xf688,%eax,%eax
  40174e:	89 44 24 ec          	mov    %eax,-0x14(%rsp)
  401752:	8b 44 24 f0          	mov    -0x10(%rsp),%eax
  401756:	69 c0 e6 13 00 00    	imul   $0x13e6,%eax,%eax
  40175c:	89 44 24 f0          	mov    %eax,-0x10(%rsp)
  401760:	8b 44 24 d8          	mov    -0x28(%rsp),%eax
  401764:	69 c0 62 59 00 00    	imul   $0x5962,%eax,%eax
  40176a:	89 44 24 d8          	mov    %eax,-0x28(%rsp)
  40176e:	8b 44 24 d8          	mov    -0x28(%rsp),%eax
  401772:	69 c0 51 47 00 00    	imul   $0x4751,%eax,%eax
  401778:	89 44 24 d8          	mov    %eax,-0x28(%rsp)
  40177c:	8b 44 24 f0          	mov    -0x10(%rsp),%eax
  401780:	69 c0 69 6a 00 00    	imul   $0x6a69,%eax,%eax
  401786:	89 44 24 f0          	mov    %eax,-0x10(%rsp)
  40178a:	8b 44 24 e8          	mov    -0x18(%rsp),%eax
  40178e:	69 c0 68 d9 00 00    	imul   $0xd968,%eax,%eax
  401794:	89 44 24 e8          	mov    %eax,-0x18(%rsp)
  401798:	8b 44 24 dc          	mov    -0x24(%rsp),%eax
  40179c:	69 c0 39 5a 00 00    	imul   $0x5a39,%eax,%eax
  4017a2:	89 44 24 dc          	mov    %eax,-0x24(%rsp)
  4017a6:	8b 44 24 d0          	mov    -0x30(%rsp),%eax
  4017aa:	69 c0 85 67 00 00    	imul   $0x6785,%eax,%eax
  4017b0:	89 44 24 d0          	mov    %eax,-0x30(%rsp)
  4017b4:	8b 44 24 e8          	mov    -0x18(%rsp),%eax
  4017b8:	69 c0 f4 b7 00 00    	imul   $0xb7f4,%eax,%eax
  4017be:	89 44 24 e8          	mov    %eax,-0x18(%rsp)
  4017c2:	8b 44 24 dc          	mov    -0x24(%rsp),%eax
  4017c6:	69 c0 64 64 00 00    	imul   $0x6464,%eax,%eax
  4017cc:	89 44 24 dc          	mov    %eax,-0x24(%rsp)
  4017d0:	8b 44 24 e0          	mov    -0x20(%rsp),%eax
  4017d4:	69 c0 dd ad 00 00    	imul   $0xaddd,%eax,%eax
  4017da:	89 44 24 e0          	mov    %eax,-0x20(%rsp)
  4017de:	8b 44 24 dc          	mov    -0x24(%rsp),%eax
  4017e2:	69 c0 62 6b 00 00    	imul   $0x6b62,%eax,%eax
  4017e8:	89 44 24 dc          	mov    %eax,-0x24(%rsp)
  4017ec:	8b 44 24 dc          	mov    -0x24(%rsp),%eax
  4017f0:	69 c0 7e 70 00 00    	imul   $0x707e,%eax,%eax
  4017f6:	89 44 24 dc          	mov    %eax,-0x24(%rsp)
  4017fa:	8b 44 24 e8          	mov    -0x18(%rsp),%eax
  4017fe:	69 c0 59 27 00 00    	imul   $0x2759,%eax,%eax
  401804:	89 44 24 e8          	mov    %eax,-0x18(%rsp)
  401808:	8b 44 24 e8          	mov    -0x18(%rsp),%eax
  40180c:	69 c0 e1 96 00 00    	imul   $0x96e1,%eax,%eax
  401812:	89 44 24 e8          	mov    %eax,-0x18(%rsp)
  401816:	8b 44 24 e4          	mov    -0x1c(%rsp),%eax
  40181a:	69 c0 b6 6f 00 00    	imul   $0x6fb6,%eax,%eax
  401820:	89 44 24 e4          	mov    %eax,-0x1c(%rsp)
  401824:	8b 44 24 d8          	mov    -0x28(%rsp),%eax
  401828:	69 c0 f1 f0 00 00    	imul   $0xf0f1,%eax,%eax
  40182e:	89 44 24 d8          	mov    %eax,-0x28(%rsp)
  401832:	8b 44 24 d4          	mov    -0x2c(%rsp),%eax
  401836:	69 c0 22 5a 00 00    	imul   $0x5a22,%eax,%eax
  40183c:	89 44 24 d4          	mov    %eax,-0x2c(%rsp)
  401840:	8b 44 24 f4          	mov    -0xc(%rsp),%eax
  401844:	69 c0 df e5 00 00    	imul   $0xe5df,%eax,%eax
  40184a:	89 44 24 f4          	mov    %eax,-0xc(%rsp)
  40184e:	8b 44 24 d0          	mov    -0x30(%rsp),%eax
  401852:	69 c0 53 9e 00 00    	imul   $0x9e53,%eax,%eax
  401858:	89 44 24 d0          	mov    %eax,-0x30(%rsp)
  40185c:	8b 44 24 d4          	mov    -0x2c(%rsp),%eax
  401860:	69 c0 01 60 00 00    	imul   $0x6001,%eax,%eax
  401866:	89 44 24 d4          	mov    %eax,-0x2c(%rsp)
  40186a:	8b 44 24 ec          	mov    -0x14(%rsp),%eax
  40186e:	69 c0 64 70 00 00    	imul   $0x7064,%eax,%eax
  401874:	89 44 24 ec          	mov    %eax,-0x14(%rsp)
  401878:	8b 44 24 e4          	mov    -0x1c(%rsp),%eax
  40187c:	69 c0 51 bc 00 00    	imul   $0xbc51,%eax,%eax
  401882:	89 44 24 e4          	mov    %eax,-0x1c(%rsp)
  401886:	8b 44 24 dc          	mov    -0x24(%rsp),%eax
  40188a:	69 c0 6d 64 00 00    	imul   $0x646d,%eax,%eax
  401890:	89 44 24 dc          	mov    %eax,-0x24(%rsp)
  401894:	8b 44 24 f4          	mov    -0xc(%rsp),%eax
  401898:	69 c0 85 c2 00 00    	imul   $0xc285,%eax,%eax
  40189e:	89 44 24 f4          	mov    %eax,-0xc(%rsp)
  4018a2:	8b 44 24 e0          	mov    -0x20(%rsp),%eax
  4018a6:	69 c0 98 c7 00 00    	imul   $0xc798,%eax,%eax
  4018ac:	89 44 24 e0          	mov    %eax,-0x20(%rsp)
  4018b0:	8b 44 24 e8          	mov    -0x18(%rsp),%eax
  4018b4:	69 c0 cb 98 00 00    	imul   $0x98cb,%eax,%eax
  4018ba:	89 44 24 e8          	mov    %eax,-0x18(%rsp)
  4018be:	8b 44 24 f4          	mov    -0xc(%rsp),%eax
  4018c2:	69 c0 27 8a 00 00    	imul   $0x8a27,%eax,%eax
  4018c8:	89 44 24 f4          	mov    %eax,-0xc(%rsp)
  4018cc:	8b 44 24 d0          	mov    -0x30(%rsp),%eax
  4018d0:	69 c0 d9 cd 00 00    	imul   $0xcdd9,%eax,%eax
  4018d6:	89 44 24 d0          	mov    %eax,-0x30(%rsp)
  4018da:	8b 44 24 e8          	mov    -0x18(%rsp),%eax
  4018de:	69 c0 86 ea 00 00    	imul   $0xea86,%eax,%eax
  4018e4:	89 44 24 e8          	mov    %eax,-0x18(%rsp)
  4018e8:	8b 44 24 e8          	mov    -0x18(%rsp),%eax
  4018ec:	69 c0 42 c4 00 00    	imul   $0xc442,%eax,%eax
  4018f2:	89 44 24 e8          	mov    %eax,-0x18(%rsp)
  4018f6:	8b 44 24 dc          	mov    -0x24(%rsp),%eax
  4018fa:	69 c0 24 f2 00 00    	imul   $0xf224,%eax,%eax
  401900:	89 44 24 dc          	mov    %eax,-0x24(%rsp)
  401904:	ba 00 00 00 00       	mov    $0x0,%edx
  401909:	b8 00 00 00 00       	mov    $0x0,%eax
  40190e:	eb 0b                	jmp    40191b <scramble+0x558>
  401910:	89 d1                	mov    %edx,%ecx
  401912:	8b 4c 8c d0          	mov    -0x30(%rsp,%rcx,4),%ecx
  401916:	01 c8                	add    %ecx,%eax
  401918:	83 c2 01             	add    $0x1,%edx
  40191b:	83 fa 09             	cmp    $0x9,%edx
  40191e:	76 f0                	jbe    401910 <scramble+0x54d>
  401920:	f3 c3                	repz retq 

0000000000401922 <getbuf>:
  401922:	48 83 ec 38          	sub    $0x38,%rsp
  401926:	48 89 e7             	mov    %rsp,%rdi
  401929:	e8 5c 03 00 00       	callq  401c8a <Gets>
  40192e:	b8 01 00 00 00       	mov    $0x1,%eax
  401933:	48 83 c4 38          	add    $0x38,%rsp
  401937:	c3                   	retq   

0000000000401938 <touch1>:
  401938:	48 83 ec 08          	sub    $0x8,%rsp
  40193c:	c7 05 96 3b 20 00 01 	movl   $0x1,0x203b96(%rip)        # 6054dc <vlevel>
  401943:	00 00 00 
  401946:	bf cf 31 40 00       	mov    $0x4031cf,%edi
  40194b:	e8 20 f4 ff ff       	callq  400d70 <puts@plt>
  401950:	bf 01 00 00 00       	mov    $0x1,%edi
  401955:	e8 1f 05 00 00       	callq  401e79 <validate>
  40195a:	bf 00 00 00 00       	mov    $0x0,%edi
  40195f:	e8 9c f5 ff ff       	callq  400f00 <exit@plt>

0000000000401964 <touch2>:
  401964:	48 83 ec 08          	sub    $0x8,%rsp
  401968:	89 fe                	mov    %edi,%esi
  40196a:	c7 05 68 3b 20 00 02 	movl   $0x2,0x203b68(%rip)        # 6054dc <vlevel>
  401971:	00 00 00 
  401974:	3b 3d 6a 3b 20 00    	cmp    0x203b6a(%rip),%edi        # 6054e4 <cookie>
  40197a:	75 1b                	jne    401997 <touch2+0x33>
  40197c:	bf f8 31 40 00       	mov    $0x4031f8,%edi
  401981:	b8 00 00 00 00       	mov    $0x0,%eax
  401986:	e8 15 f4 ff ff       	callq  400da0 <printf@plt>
  40198b:	bf 02 00 00 00       	mov    $0x2,%edi
  401990:	e8 e4 04 00 00       	callq  401e79 <validate>
  401995:	eb 19                	jmp    4019b0 <touch2+0x4c>
  401997:	bf 20 32 40 00       	mov    $0x403220,%edi
  40199c:	b8 00 00 00 00       	mov    $0x0,%eax
  4019a1:	e8 fa f3 ff ff       	callq  400da0 <printf@plt>
  4019a6:	bf 02 00 00 00       	mov    $0x2,%edi
  4019ab:	e8 7b 05 00 00       	callq  401f2b <fail>
  4019b0:	bf 00 00 00 00       	mov    $0x0,%edi
  4019b5:	e8 46 f5 ff ff       	callq  400f00 <exit@plt>

00000000004019ba <hexmatch>:
  4019ba:	41 54                	push   %r12
  4019bc:	55                   	push   %rbp
  4019bd:	53                   	push   %rbx
  4019be:	48 83 ec 70          	sub    $0x70,%rsp
  4019c2:	41 89 fc             	mov    %edi,%r12d
  4019c5:	48 89 f5             	mov    %rsi,%rbp
  4019c8:	e8 93 f4 ff ff       	callq  400e60 <random@plt>
  4019cd:	48 89 c1             	mov    %rax,%rcx
  4019d0:	48 ba 0b d7 a3 70 3d 	movabs $0xa3d70a3d70a3d70b,%rdx
  4019d7:	0a d7 a3 
  4019da:	48 f7 ea             	imul   %rdx
  4019dd:	48 8d 04 0a          	lea    (%rdx,%rcx,1),%rax
  4019e1:	48 c1 f8 06          	sar    $0x6,%rax
  4019e5:	48 89 ce             	mov    %rcx,%rsi
  4019e8:	48 c1 fe 3f          	sar    $0x3f,%rsi
  4019ec:	48 29 f0             	sub    %rsi,%rax
  4019ef:	48 8d 04 80          	lea    (%rax,%rax,4),%rax
  4019f3:	48 8d 04 80          	lea    (%rax,%rax,4),%rax
  4019f7:	48 c1 e0 02          	shl    $0x2,%rax
  4019fb:	48 29 c1             	sub    %rax,%rcx
  4019fe:	48 8d 1c 0c          	lea    (%rsp,%rcx,1),%rbx
  401a02:	44 89 e2             	mov    %r12d,%edx
  401a05:	be ec 31 40 00       	mov    $0x4031ec,%esi
  401a0a:	48 89 df             	mov    %rbx,%rdi
  401a0d:	b8 00 00 00 00       	mov    $0x0,%eax
  401a12:	e8 d9 f4 ff ff       	callq  400ef0 <sprintf@plt>
  401a17:	ba 09 00 00 00       	mov    $0x9,%edx
  401a1c:	48 89 de             	mov    %rbx,%rsi
  401a1f:	48 89 ef             	mov    %rbp,%rdi
  401a22:	e8 29 f3 ff ff       	callq  400d50 <strncmp@plt>
  401a27:	85 c0                	test   %eax,%eax
  401a29:	0f 94 c0             	sete   %al
  401a2c:	0f b6 c0             	movzbl %al,%eax
  401a2f:	48 83 c4 70          	add    $0x70,%rsp
  401a33:	5b                   	pop    %rbx
  401a34:	5d                   	pop    %rbp
  401a35:	41 5c                	pop    %r12
  401a37:	c3                   	retq   

0000000000401a38 <touch3>:
  401a38:	53                   	push   %rbx
  401a39:	48 89 fb             	mov    %rdi,%rbx
  401a3c:	c7 05 96 3a 20 00 03 	movl   $0x3,0x203a96(%rip)        # 6054dc <vlevel>
  401a43:	00 00 00 
  401a46:	48 89 fe             	mov    %rdi,%rsi
  401a49:	8b 3d 95 3a 20 00    	mov    0x203a95(%rip),%edi        # 6054e4 <cookie>
  401a4f:	e8 66 ff ff ff       	callq  4019ba <hexmatch>
  401a54:	85 c0                	test   %eax,%eax
  401a56:	74 1e                	je     401a76 <touch3+0x3e>
  401a58:	48 89 de             	mov    %rbx,%rsi
  401a5b:	bf 48 32 40 00       	mov    $0x403248,%edi
  401a60:	b8 00 00 00 00       	mov    $0x0,%eax
  401a65:	e8 36 f3 ff ff       	callq  400da0 <printf@plt>
  401a6a:	bf 03 00 00 00       	mov    $0x3,%edi
  401a6f:	e8 05 04 00 00       	callq  401e79 <validate>
  401a74:	eb 1c                	jmp    401a92 <touch3+0x5a>
  401a76:	48 89 de             	mov    %rbx,%rsi
  401a79:	bf 70 32 40 00       	mov    $0x403270,%edi
  401a7e:	b8 00 00 00 00       	mov    $0x0,%eax
  401a83:	e8 18 f3 ff ff       	callq  400da0 <printf@plt>
  401a88:	bf 03 00 00 00       	mov    $0x3,%edi
  401a8d:	e8 99 04 00 00       	callq  401f2b <fail>
  401a92:	bf 00 00 00 00       	mov    $0x0,%edi
  401a97:	e8 64 f4 ff ff       	callq  400f00 <exit@plt>

0000000000401a9c <test>:
  401a9c:	48 83 ec 08          	sub    $0x8,%rsp
  401aa0:	b8 00 00 00 00       	mov    $0x0,%eax
  401aa5:	e8 78 fe ff ff       	callq  401922 <getbuf>
  401aaa:	89 c6                	mov    %eax,%esi
  401aac:	bf 98 32 40 00       	mov    $0x403298,%edi
  401ab1:	b8 00 00 00 00       	mov    $0x0,%eax
  401ab6:	e8 e5 f2 ff ff       	callq  400da0 <printf@plt>
  401abb:	48 83 c4 08          	add    $0x8,%rsp
  401abf:	c3                   	retq   

0000000000401ac0 <start_farm>:
  401ac0:	b8 01 00 00 00       	mov    $0x1,%eax
  401ac5:	c3                   	retq   

0000000000401ac6 <getval_281>:
  401ac6:	b8 48 89 c7 c1       	mov    $0xc1c78948,%eax
  401acb:	c3                   	retq   

0000000000401acc <addval_303>:
  401acc:	8d 87 ac 7c 78 90    	lea    -0x6f878354(%rdi),%eax
  401ad2:	c3                   	retq   

0000000000401ad3 <getval_205>:
  401ad3:	b8 48 89 c7 90       	mov    $0x90c78948,%eax
  401ad8:	c3                   	retq   

0000000000401ad9 <getval_251>:
  401ad9:	b8 58 94 90 c3       	mov    $0xc3909458,%eax
  401ade:	c3                   	retq   

0000000000401adf <setval_262>:
  401adf:	c7 07 72 59 58 90    	movl   $0x90585972,(%rdi)
  401ae5:	c3                   	retq   

0000000000401ae6 <addval_382>:
  401ae6:	8d 87 48 89 c7 c3    	lea    -0x3c3876b8(%rdi),%eax
  401aec:	c3                   	retq   

0000000000401aed <setval_249>:
  401aed:	c7 07 58 c3 db b7    	movl   $0xb7dbc358,(%rdi)
  401af3:	c3                   	retq   

0000000000401af4 <getval_151>:
  401af4:	b8 48 89 c7 91       	mov    $0x91c78948,%eax
  401af9:	c3                   	retq   

0000000000401afa <mid_farm>:
  401afa:	b8 01 00 00 00       	mov    $0x1,%eax
  401aff:	c3                   	retq   

0000000000401b00 <add_xy>:
  401b00:	48 8d 04 37          	lea    (%rdi,%rsi,1),%rax
  401b04:	c3                   	retq   

0000000000401b05 <addval_180>:
  401b05:	8d 87 a9 ca 20 c0    	lea    -0x3fdf3557(%rdi),%eax
  401b0b:	c3                   	retq   

0000000000401b0c <setval_128>:
  401b0c:	c7 07 48 a9 e0 c3    	movl   $0xc3e0a948,(%rdi)
  401b12:	c3                   	retq   

0000000000401b13 <setval_258>:
  401b13:	c7 07 88 ca 08 c0    	movl   $0xc008ca88,(%rdi)
  401b19:	c3                   	retq   

0000000000401b1a <setval_441>:
  401b1a:	c7 07 8f 48 89 e0    	movl   $0xe089488f,(%rdi)
  401b20:	c3                   	retq   

0000000000401b21 <addval_375>:
  401b21:	8d 87 99 ca 84 c9    	lea    -0x367b3567(%rdi),%eax
  401b27:	c3                   	retq   

0000000000401b28 <addval_168>:
  401b28:	8d 87 89 ca 38 d2    	lea    -0x2dc73577(%rdi),%eax
  401b2e:	c3                   	retq   

0000000000401b2f <getval_465>:
  401b2f:	b8 08 89 e0 90       	mov    $0x90e08908,%eax
  401b34:	c3                   	retq   

0000000000401b35 <setval_280>:
  401b35:	c7 07 89 ca 90 c3    	movl   $0xc390ca89,(%rdi)
  401b3b:	c3                   	retq   

0000000000401b3c <setval_191>:
  401b3c:	c7 07 89 c1 38 d2    	movl   $0xd238c189,(%rdi)
  401b42:	c3                   	retq   

0000000000401b43 <getval_413>:
  401b43:	b8 a9 89 d6 94       	mov    $0x94d689a9,%eax
  401b48:	c3                   	retq   

0000000000401b49 <addval_118>:
  401b49:	8d 87 48 89 e0 90    	lea    -0x6f1f76b8(%rdi),%eax
  401b4f:	c3                   	retq   

0000000000401b50 <getval_412>:
  401b50:	b8 89 c1 92 c3       	mov    $0xc392c189,%eax
  401b55:	c3                   	retq   

0000000000401b56 <setval_384>:
  401b56:	c7 07 48 89 e0 c1    	movl   $0xc1e08948,(%rdi)
  401b5c:	c3                   	retq   

0000000000401b5d <addval_334>:
  401b5d:	8d 87 c9 d6 08 c0    	lea    -0x3ff72937(%rdi),%eax
  401b63:	c3                   	retq   

0000000000401b64 <addval_170>:
  401b64:	8d 87 c9 ca 84 c9    	lea    -0x367b3537(%rdi),%eax
  401b6a:	c3                   	retq   

0000000000401b6b <getval_209>:
  401b6b:	b8 4c 89 e0 c3       	mov    $0xc3e0894c,%eax
  401b70:	c3                   	retq   

0000000000401b71 <addval_467>:
  401b71:	8d 87 e4 a9 c1 c3    	lea    -0x3c3e561c(%rdi),%eax
  401b77:	c3                   	retq   

0000000000401b78 <getval_203>:
  401b78:	b8 89 d6 84 c0       	mov    $0xc084d689,%eax
  401b7d:	c3                   	retq   

0000000000401b7e <addval_458>:
  401b7e:	8d 87 99 d6 20 c0    	lea    -0x3fdf2967(%rdi),%eax
  401b84:	c3                   	retq   

0000000000401b85 <getval_494>:
  401b85:	b8 89 ca 91 90       	mov    $0x9091ca89,%eax
  401b8a:	c3                   	retq   

0000000000401b8b <setval_125>:
  401b8b:	c7 07 40 89 e0 c3    	movl   $0xc3e08940,(%rdi)
  401b91:	c3                   	retq   

0000000000401b92 <setval_346>:
  401b92:	c7 07 89 c1 08 c0    	movl   $0xc008c189,(%rdi)
  401b98:	c3                   	retq   

0000000000401b99 <addval_259>:
  401b99:	8d 87 d0 48 09 e0    	lea    -0x1ff6b730(%rdi),%eax
  401b9f:	c3                   	retq   

0000000000401ba0 <getval_360>:
  401ba0:	b8 89 c1 18 db       	mov    $0xdb18c189,%eax
  401ba5:	c3                   	retq   

0000000000401ba6 <addval_104>:
  401ba6:	8d 87 81 d6 38 db    	lea    -0x24c7297f(%rdi),%eax
  401bac:	c3                   	retq   

0000000000401bad <addval_242>:
  401bad:	8d 87 89 d6 94 d2    	lea    -0x2d6b2977(%rdi),%eax
  401bb3:	c3                   	retq   

0000000000401bb4 <getval_488>:
  401bb4:	b8 8d ca 90 c3       	mov    $0xc390ca8d,%eax
  401bb9:	c3                   	retq   

0000000000401bba <addval_140>:
  401bba:	8d 87 3d 99 c1 90    	lea    -0x6f3e66c3(%rdi),%eax
  401bc0:	c3                   	retq   

0000000000401bc1 <addval_252>:
  401bc1:	8d 87 89 d6 84 db    	lea    -0x247b2977(%rdi),%eax
  401bc7:	c3                   	retq   

0000000000401bc8 <setval_234>:
  401bc8:	c7 07 99 d6 08 d2    	movl   $0xd208d699,(%rdi)
  401bce:	c3                   	retq   

0000000000401bcf <getval_230>:
  401bcf:	b8 8d c1 84 db       	mov    $0xdb84c18d,%eax
  401bd4:	c3                   	retq   

0000000000401bd5 <setval_462>:
  401bd5:	c7 07 81 c1 38 c0    	movl   $0xc038c181,(%rdi)
  401bdb:	c3                   	retq   

0000000000401bdc <end_farm>:
  401bdc:	b8 01 00 00 00       	mov    $0x1,%eax
  401be1:	c3                   	retq   
  401be2:	66 2e 0f 1f 84 00 00 	nopw   %cs:0x0(%rax,%rax,1)
  401be9:	00 00 00 
  401bec:	0f 1f 40 00          	nopl   0x0(%rax)

0000000000401bf0 <save_char>:
  401bf0:	8b 05 0e 45 20 00    	mov    0x20450e(%rip),%eax        # 606104 <gets_cnt>
  401bf6:	3d ff 03 00 00       	cmp    $0x3ff,%eax
  401bfb:	7f 49                	jg     401c46 <save_char+0x56>
  401bfd:	8d 14 40             	lea    (%rax,%rax,2),%edx
  401c00:	89 f9                	mov    %edi,%ecx
  401c02:	c0 e9 04             	shr    $0x4,%cl
  401c05:	83 e1 0f             	and    $0xf,%ecx
  401c08:	0f b6 b1 c0 35 40 00 	movzbl 0x4035c0(%rcx),%esi
  401c0f:	48 63 ca             	movslq %edx,%rcx
  401c12:	40 88 b1 00 55 60 00 	mov    %sil,0x605500(%rcx)
  401c19:	8d 4a 01             	lea    0x1(%rdx),%ecx
  401c1c:	83 e7 0f             	and    $0xf,%edi
  401c1f:	0f b6 b7 c0 35 40 00 	movzbl 0x4035c0(%rdi),%esi
  401c26:	48 63 c9             	movslq %ecx,%rcx
  401c29:	40 88 b1 00 55 60 00 	mov    %sil,0x605500(%rcx)
  401c30:	83 c2 02             	add    $0x2,%edx
  401c33:	48 63 d2             	movslq %edx,%rdx
  401c36:	c6 82 00 55 60 00 20 	movb   $0x20,0x605500(%rdx)
  401c3d:	83 c0 01             	add    $0x1,%eax
  401c40:	89 05 be 44 20 00    	mov    %eax,0x2044be(%rip)        # 606104 <gets_cnt>
  401c46:	f3 c3                	repz retq 

0000000000401c48 <save_term>:
  401c48:	8b 05 b6 44 20 00    	mov    0x2044b6(%rip),%eax        # 606104 <gets_cnt>
  401c4e:	8d 04 40             	lea    (%rax,%rax,2),%eax
  401c51:	48 98                	cltq   
  401c53:	c6 80 00 55 60 00 00 	movb   $0x0,0x605500(%rax)
  401c5a:	c3                   	retq   

0000000000401c5b <check_fail>:
  401c5b:	48 83 ec 08          	sub    $0x8,%rsp
  401c5f:	0f be 35 a2 44 20 00 	movsbl 0x2044a2(%rip),%esi        # 606108 <target_prefix>
  401c66:	b9 00 55 60 00       	mov    $0x605500,%ecx
  401c6b:	8b 15 67 38 20 00    	mov    0x203867(%rip),%edx        # 6054d8 <check_level>
  401c71:	bf bb 32 40 00       	mov    $0x4032bb,%edi
  401c76:	b8 00 00 00 00       	mov    $0x0,%eax
  401c7b:	e8 20 f1 ff ff       	callq  400da0 <printf@plt>
  401c80:	bf 01 00 00 00       	mov    $0x1,%edi
  401c85:	e8 76 f2 ff ff       	callq  400f00 <exit@plt>

0000000000401c8a <Gets>:
  401c8a:	41 54                	push   %r12
  401c8c:	55                   	push   %rbp
  401c8d:	53                   	push   %rbx
  401c8e:	49 89 fc             	mov    %rdi,%r12
  401c91:	c7 05 69 44 20 00 00 	movl   $0x0,0x204469(%rip)        # 606104 <gets_cnt>
  401c98:	00 00 00 
  401c9b:	48 89 fb             	mov    %rdi,%rbx
  401c9e:	eb 11                	jmp    401cb1 <Gets+0x27>
  401ca0:	48 8d 6b 01          	lea    0x1(%rbx),%rbp
  401ca4:	88 03                	mov    %al,(%rbx)
  401ca6:	0f b6 f8             	movzbl %al,%edi
  401ca9:	e8 42 ff ff ff       	callq  401bf0 <save_char>
  401cae:	48 89 eb             	mov    %rbp,%rbx
  401cb1:	48 8b 3d 18 38 20 00 	mov    0x203818(%rip),%rdi        # 6054d0 <infile>
  401cb8:	e8 b3 f1 ff ff       	callq  400e70 <_IO_getc@plt>
  401cbd:	83 f8 ff             	cmp    $0xffffffff,%eax
  401cc0:	74 05                	je     401cc7 <Gets+0x3d>
  401cc2:	83 f8 0a             	cmp    $0xa,%eax
  401cc5:	75 d9                	jne    401ca0 <Gets+0x16>
  401cc7:	c6 03 00             	movb   $0x0,(%rbx)
  401cca:	b8 00 00 00 00       	mov    $0x0,%eax
  401ccf:	e8 74 ff ff ff       	callq  401c48 <save_term>
  401cd4:	4c 89 e0             	mov    %r12,%rax
  401cd7:	5b                   	pop    %rbx
  401cd8:	5d                   	pop    %rbp
  401cd9:	41 5c                	pop    %r12
  401cdb:	c3                   	retq   

0000000000401cdc <notify_server>:
  401cdc:	83 3d 05 38 20 00 00 	cmpl   $0x0,0x203805(%rip)        # 6054e8 <is_checker>
  401ce3:	0f 85 8e 01 00 00    	jne    401e77 <notify_server+0x19b>
  401ce9:	53                   	push   %rbx
  401cea:	48 81 ec 10 40 00 00 	sub    $0x4010,%rsp
  401cf1:	89 fb                	mov    %edi,%ebx
  401cf3:	8b 05 0b 44 20 00    	mov    0x20440b(%rip),%eax        # 606104 <gets_cnt>
  401cf9:	83 c0 64             	add    $0x64,%eax
  401cfc:	3d 00 20 00 00       	cmp    $0x2000,%eax
  401d01:	7e 19                	jle    401d1c <notify_server+0x40>
  401d03:	bf f0 33 40 00       	mov    $0x4033f0,%edi
  401d08:	b8 00 00 00 00       	mov    $0x0,%eax
  401d0d:	e8 8e f0 ff ff       	callq  400da0 <printf@plt>
  401d12:	bf 01 00 00 00       	mov    $0x1,%edi
  401d17:	e8 e4 f1 ff ff       	callq  400f00 <exit@plt>
  401d1c:	44 0f be 0d e4 43 20 	movsbl 0x2043e4(%rip),%r9d        # 606108 <target_prefix>
  401d23:	00 
  401d24:	83 3d 5d 37 20 00 00 	cmpl   $0x0,0x20375d(%rip)        # 605488 <notify>
  401d2b:	74 09                	je     401d36 <notify_server+0x5a>
  401d2d:	44 8b 05 ac 37 20 00 	mov    0x2037ac(%rip),%r8d        # 6054e0 <authkey>
  401d34:	eb 06                	jmp    401d3c <notify_server+0x60>
  401d36:	41 b8 ff ff ff ff    	mov    $0xffffffff,%r8d
  401d3c:	85 db                	test   %ebx,%ebx
  401d3e:	74 07                	je     401d47 <notify_server+0x6b>
  401d40:	b9 d1 32 40 00       	mov    $0x4032d1,%ecx
  401d45:	eb 05                	jmp    401d4c <notify_server+0x70>
  401d47:	b9 d6 32 40 00       	mov    $0x4032d6,%ecx
  401d4c:	48 c7 44 24 08 00 55 	movq   $0x605500,0x8(%rsp)
  401d53:	60 00 
  401d55:	89 34 24             	mov    %esi,(%rsp)
  401d58:	8b 15 ea 33 20 00    	mov    0x2033ea(%rip),%edx        # 605148 <target_id>
  401d5e:	be db 32 40 00       	mov    $0x4032db,%esi
  401d63:	48 8d bc 24 10 20 00 	lea    0x2010(%rsp),%rdi
  401d6a:	00 
  401d6b:	b8 00 00 00 00       	mov    $0x0,%eax
  401d70:	e8 7b f1 ff ff       	callq  400ef0 <sprintf@plt>
  401d75:	83 3d 0c 37 20 00 00 	cmpl   $0x0,0x20370c(%rip)        # 605488 <notify>
  401d7c:	74 78                	je     401df6 <notify_server+0x11a>
  401d7e:	85 db                	test   %ebx,%ebx
  401d80:	74 68                	je     401dea <notify_server+0x10e>
  401d82:	4c 8d 4c 24 10       	lea    0x10(%rsp),%r9
  401d87:	41 b8 00 00 00 00    	mov    $0x0,%r8d
  401d8d:	48 8d 8c 24 10 20 00 	lea    0x2010(%rsp),%rcx
  401d94:	00 
  401d95:	48 8b 15 b4 33 20 00 	mov    0x2033b4(%rip),%rdx        # 605150 <lab>
  401d9c:	48 8b 35 b5 33 20 00 	mov    0x2033b5(%rip),%rsi        # 605158 <course>
  401da3:	48 8b 3d 96 33 20 00 	mov    0x203396(%rip),%rdi        # 605140 <user_id>
  401daa:	e8 c0 0f 00 00       	callq  402d6f <driver_post>
  401daf:	85 c0                	test   %eax,%eax
  401db1:	79 1e                	jns    401dd1 <notify_server+0xf5>
  401db3:	48 8d 74 24 10       	lea    0x10(%rsp),%rsi
  401db8:	bf f7 32 40 00       	mov    $0x4032f7,%edi
  401dbd:	b8 00 00 00 00       	mov    $0x0,%eax
  401dc2:	e8 d9 ef ff ff       	callq  400da0 <printf@plt>
  401dc7:	bf 01 00 00 00       	mov    $0x1,%edi
  401dcc:	e8 2f f1 ff ff       	callq  400f00 <exit@plt>
  401dd1:	bf 20 34 40 00       	mov    $0x403420,%edi
  401dd6:	e8 95 ef ff ff       	callq  400d70 <puts@plt>
  401ddb:	bf 03 33 40 00       	mov    $0x403303,%edi
  401de0:	e8 8b ef ff ff       	callq  400d70 <puts@plt>
  401de5:	e9 85 00 00 00       	jmpq   401e6f <notify_server+0x193>
  401dea:	bf 0d 33 40 00       	mov    $0x40330d,%edi
  401def:	e8 7c ef ff ff       	callq  400d70 <puts@plt>
  401df4:	eb 79                	jmp    401e6f <notify_server+0x193>
  401df6:	85 db                	test   %ebx,%ebx
  401df8:	74 08                	je     401e02 <notify_server+0x126>
  401dfa:	be d1 32 40 00       	mov    $0x4032d1,%esi
  401dff:	90                   	nop
  401e00:	eb 05                	jmp    401e07 <notify_server+0x12b>
  401e02:	be d6 32 40 00       	mov    $0x4032d6,%esi
  401e07:	bf 58 34 40 00       	mov    $0x403458,%edi
  401e0c:	b8 00 00 00 00       	mov    $0x0,%eax
  401e11:	e8 8a ef ff ff       	callq  400da0 <printf@plt>
  401e16:	48 8b 35 23 33 20 00 	mov    0x203323(%rip),%rsi        # 605140 <user_id>
  401e1d:	bf 14 33 40 00       	mov    $0x403314,%edi
  401e22:	b8 00 00 00 00       	mov    $0x0,%eax
  401e27:	e8 74 ef ff ff       	callq  400da0 <printf@plt>
  401e2c:	48 8b 35 25 33 20 00 	mov    0x203325(%rip),%rsi        # 605158 <course>
  401e33:	bf 21 33 40 00       	mov    $0x403321,%edi
  401e38:	b8 00 00 00 00       	mov    $0x0,%eax
  401e3d:	e8 5e ef ff ff       	callq  400da0 <printf@plt>
  401e42:	48 8b 35 07 33 20 00 	mov    0x203307(%rip),%rsi        # 605150 <lab>
  401e49:	bf 2d 33 40 00       	mov    $0x40332d,%edi
  401e4e:	b8 00 00 00 00       	mov    $0x0,%eax
  401e53:	e8 48 ef ff ff       	callq  400da0 <printf@plt>
  401e58:	48 8d b4 24 10 20 00 	lea    0x2010(%rsp),%rsi
  401e5f:	00 
  401e60:	bf 36 33 40 00       	mov    $0x403336,%edi
  401e65:	b8 00 00 00 00       	mov    $0x0,%eax
  401e6a:	e8 31 ef ff ff       	callq  400da0 <printf@plt>
  401e6f:	48 81 c4 10 40 00 00 	add    $0x4010,%rsp
  401e76:	5b                   	pop    %rbx
  401e77:	f3 c3                	repz retq 

0000000000401e79 <validate>:
  401e79:	53                   	push   %rbx
  401e7a:	89 fb                	mov    %edi,%ebx
  401e7c:	83 3d 65 36 20 00 00 	cmpl   $0x0,0x203665(%rip)        # 6054e8 <is_checker>
  401e83:	74 60                	je     401ee5 <validate+0x6c>
  401e85:	39 3d 51 36 20 00    	cmp    %edi,0x203651(%rip)        # 6054dc <vlevel>
  401e8b:	74 14                	je     401ea1 <validate+0x28>
  401e8d:	bf 42 33 40 00       	mov    $0x403342,%edi
  401e92:	e8 d9 ee ff ff       	callq  400d70 <puts@plt>
  401e97:	b8 00 00 00 00       	mov    $0x0,%eax
  401e9c:	e8 ba fd ff ff       	callq  401c5b <check_fail>
  401ea1:	8b 35 31 36 20 00    	mov    0x203631(%rip),%esi        # 6054d8 <check_level>
  401ea7:	39 fe                	cmp    %edi,%esi
  401ea9:	74 1b                	je     401ec6 <validate+0x4d>
  401eab:	89 fa                	mov    %edi,%edx
  401ead:	bf 80 34 40 00       	mov    $0x403480,%edi
  401eb2:	b8 00 00 00 00       	mov    $0x0,%eax
  401eb7:	e8 e4 ee ff ff       	callq  400da0 <printf@plt>
  401ebc:	b8 00 00 00 00       	mov    $0x0,%eax
  401ec1:	e8 95 fd ff ff       	callq  401c5b <check_fail>
  401ec6:	0f be 35 3b 42 20 00 	movsbl 0x20423b(%rip),%esi        # 606108 <target_prefix>
  401ecd:	b9 00 55 60 00       	mov    $0x605500,%ecx
  401ed2:	89 fa                	mov    %edi,%edx
  401ed4:	bf 60 33 40 00       	mov    $0x403360,%edi
  401ed9:	b8 00 00 00 00       	mov    $0x0,%eax
  401ede:	e8 bd ee ff ff       	callq  400da0 <printf@plt>
  401ee3:	eb 44                	jmp    401f29 <validate+0xb0>
  401ee5:	39 3d f1 35 20 00    	cmp    %edi,0x2035f1(%rip)        # 6054dc <vlevel>
  401eeb:	74 18                	je     401f05 <validate+0x8c>
  401eed:	bf 42 33 40 00       	mov    $0x403342,%edi
  401ef2:	e8 79 ee ff ff       	callq  400d70 <puts@plt>
  401ef7:	89 de                	mov    %ebx,%esi
  401ef9:	bf 00 00 00 00       	mov    $0x0,%edi
  401efe:	e8 d9 fd ff ff       	callq  401cdc <notify_server>
  401f03:	eb 24                	jmp    401f29 <validate+0xb0>
  401f05:	0f be 15 fc 41 20 00 	movsbl 0x2041fc(%rip),%edx        # 606108 <target_prefix>
  401f0c:	89 fe                	mov    %edi,%esi
  401f0e:	bf a8 34 40 00       	mov    $0x4034a8,%edi
  401f13:	b8 00 00 00 00       	mov    $0x0,%eax
  401f18:	e8 83 ee ff ff       	callq  400da0 <printf@plt>
  401f1d:	89 de                	mov    %ebx,%esi
  401f1f:	bf 01 00 00 00       	mov    $0x1,%edi
  401f24:	e8 b3 fd ff ff       	callq  401cdc <notify_server>
  401f29:	5b                   	pop    %rbx
  401f2a:	c3                   	retq   

0000000000401f2b <fail>:
  401f2b:	48 83 ec 08          	sub    $0x8,%rsp
  401f2f:	83 3d b2 35 20 00 00 	cmpl   $0x0,0x2035b2(%rip)        # 6054e8 <is_checker>
  401f36:	74 0a                	je     401f42 <fail+0x17>
  401f38:	b8 00 00 00 00       	mov    $0x0,%eax
  401f3d:	e8 19 fd ff ff       	callq  401c5b <check_fail>
  401f42:	89 fe                	mov    %edi,%esi
  401f44:	bf 00 00 00 00       	mov    $0x0,%edi
  401f49:	e8 8e fd ff ff       	callq  401cdc <notify_server>
  401f4e:	48 83 c4 08          	add    $0x8,%rsp
  401f52:	c3                   	retq   

0000000000401f53 <bushandler>:
  401f53:	48 83 ec 08          	sub    $0x8,%rsp
  401f57:	83 3d 8a 35 20 00 00 	cmpl   $0x0,0x20358a(%rip)        # 6054e8 <is_checker>
  401f5e:	74 14                	je     401f74 <bushandler+0x21>
  401f60:	bf 75 33 40 00       	mov    $0x403375,%edi
  401f65:	e8 06 ee ff ff       	callq  400d70 <puts@plt>
  401f6a:	b8 00 00 00 00       	mov    $0x0,%eax
  401f6f:	e8 e7 fc ff ff       	callq  401c5b <check_fail>
  401f74:	bf e0 34 40 00       	mov    $0x4034e0,%edi
  401f79:	e8 f2 ed ff ff       	callq  400d70 <puts@plt>
  401f7e:	bf 7f 33 40 00       	mov    $0x40337f,%edi
  401f83:	e8 e8 ed ff ff       	callq  400d70 <puts@plt>
  401f88:	be 00 00 00 00       	mov    $0x0,%esi
  401f8d:	bf 00 00 00 00       	mov    $0x0,%edi
  401f92:	e8 45 fd ff ff       	callq  401cdc <notify_server>
  401f97:	bf 01 00 00 00       	mov    $0x1,%edi
  401f9c:	e8 5f ef ff ff       	callq  400f00 <exit@plt>

0000000000401fa1 <seghandler>:
  401fa1:	48 83 ec 08          	sub    $0x8,%rsp
  401fa5:	83 3d 3c 35 20 00 00 	cmpl   $0x0,0x20353c(%rip)        # 6054e8 <is_checker>
  401fac:	74 14                	je     401fc2 <seghandler+0x21>
  401fae:	bf 95 33 40 00       	mov    $0x403395,%edi
  401fb3:	e8 b8 ed ff ff       	callq  400d70 <puts@plt>
  401fb8:	b8 00 00 00 00       	mov    $0x0,%eax
  401fbd:	e8 99 fc ff ff       	callq  401c5b <check_fail>
  401fc2:	bf 00 35 40 00       	mov    $0x403500,%edi
  401fc7:	e8 a4 ed ff ff       	callq  400d70 <puts@plt>
  401fcc:	bf 7f 33 40 00       	mov    $0x40337f,%edi
  401fd1:	e8 9a ed ff ff       	callq  400d70 <puts@plt>
  401fd6:	be 00 00 00 00       	mov    $0x0,%esi
  401fdb:	bf 00 00 00 00       	mov    $0x0,%edi
  401fe0:	e8 f7 fc ff ff       	callq  401cdc <notify_server>
  401fe5:	bf 01 00 00 00       	mov    $0x1,%edi
  401fea:	e8 11 ef ff ff       	callq  400f00 <exit@plt>

0000000000401fef <illegalhandler>:
  401fef:	48 83 ec 08          	sub    $0x8,%rsp
  401ff3:	83 3d ee 34 20 00 00 	cmpl   $0x0,0x2034ee(%rip)        # 6054e8 <is_checker>
  401ffa:	74 14                	je     402010 <illegalhandler+0x21>
  401ffc:	bf a8 33 40 00       	mov    $0x4033a8,%edi
  402001:	e8 6a ed ff ff       	callq  400d70 <puts@plt>
  402006:	b8 00 00 00 00       	mov    $0x0,%eax
  40200b:	e8 4b fc ff ff       	callq  401c5b <check_fail>
  402010:	bf 28 35 40 00       	mov    $0x403528,%edi
  402015:	e8 56 ed ff ff       	callq  400d70 <puts@plt>
  40201a:	bf 7f 33 40 00       	mov    $0x40337f,%edi
  40201f:	e8 4c ed ff ff       	callq  400d70 <puts@plt>
  402024:	be 00 00 00 00       	mov    $0x0,%esi
  402029:	bf 00 00 00 00       	mov    $0x0,%edi
  40202e:	e8 a9 fc ff ff       	callq  401cdc <notify_server>
  402033:	bf 01 00 00 00       	mov    $0x1,%edi
  402038:	e8 c3 ee ff ff       	callq  400f00 <exit@plt>

000000000040203d <sigalrmhandler>:
  40203d:	48 83 ec 08          	sub    $0x8,%rsp
  402041:	83 3d a0 34 20 00 00 	cmpl   $0x0,0x2034a0(%rip)        # 6054e8 <is_checker>
  402048:	74 14                	je     40205e <sigalrmhandler+0x21>
  40204a:	bf bc 33 40 00       	mov    $0x4033bc,%edi
  40204f:	e8 1c ed ff ff       	callq  400d70 <puts@plt>
  402054:	b8 00 00 00 00       	mov    $0x0,%eax
  402059:	e8 fd fb ff ff       	callq  401c5b <check_fail>
  40205e:	be 05 00 00 00       	mov    $0x5,%esi
  402063:	bf 58 35 40 00       	mov    $0x403558,%edi
  402068:	b8 00 00 00 00       	mov    $0x0,%eax
  40206d:	e8 2e ed ff ff       	callq  400da0 <printf@plt>
  402072:	be 00 00 00 00       	mov    $0x0,%esi
  402077:	bf 00 00 00 00       	mov    $0x0,%edi
  40207c:	e8 5b fc ff ff       	callq  401cdc <notify_server>
  402081:	bf 01 00 00 00       	mov    $0x1,%edi
  402086:	e8 75 ee ff ff       	callq  400f00 <exit@plt>

000000000040208b <launch>:
  40208b:	55                   	push   %rbp
  40208c:	48 89 e5             	mov    %rsp,%rbp
  40208f:	48 89 fa             	mov    %rdi,%rdx
  402092:	48 8d 47 1e          	lea    0x1e(%rdi),%rax
  402096:	48 83 e0 f0          	and    $0xfffffffffffffff0,%rax
  40209a:	48 29 c4             	sub    %rax,%rsp
  40209d:	48 8d 7c 24 0f       	lea    0xf(%rsp),%rdi
  4020a2:	48 83 e7 f0          	and    $0xfffffffffffffff0,%rdi
  4020a6:	be f4 00 00 00       	mov    $0xf4,%esi
  4020ab:	e8 00 ed ff ff       	callq  400db0 <memset@plt>
  4020b0:	48 8b 05 e9 33 20 00 	mov    0x2033e9(%rip),%rax        # 6054a0 <stdin@@GLIBC_2.2.5>
  4020b7:	48 39 05 12 34 20 00 	cmp    %rax,0x203412(%rip)        # 6054d0 <infile>
  4020be:	75 0f                	jne    4020cf <launch+0x44>
  4020c0:	bf c4 33 40 00       	mov    $0x4033c4,%edi
  4020c5:	b8 00 00 00 00       	mov    $0x0,%eax
  4020ca:	e8 d1 ec ff ff       	callq  400da0 <printf@plt>
  4020cf:	c7 05 03 34 20 00 00 	movl   $0x0,0x203403(%rip)        # 6054dc <vlevel>
  4020d6:	00 00 00 
  4020d9:	b8 00 00 00 00       	mov    $0x0,%eax
  4020de:	e8 b9 f9 ff ff       	callq  401a9c <test>
  4020e3:	83 3d fe 33 20 00 00 	cmpl   $0x0,0x2033fe(%rip)        # 6054e8 <is_checker>
  4020ea:	74 14                	je     402100 <launch+0x75>
  4020ec:	bf d1 33 40 00       	mov    $0x4033d1,%edi
  4020f1:	e8 7a ec ff ff       	callq  400d70 <puts@plt>
  4020f6:	b8 00 00 00 00       	mov    $0x0,%eax
  4020fb:	e8 5b fb ff ff       	callq  401c5b <check_fail>
  402100:	bf dc 33 40 00       	mov    $0x4033dc,%edi
  402105:	e8 66 ec ff ff       	callq  400d70 <puts@plt>
  40210a:	c9                   	leaveq 
  40210b:	c3                   	retq   

000000000040210c <stable_launch>:
  40210c:	53                   	push   %rbx
  40210d:	48 89 3d b4 33 20 00 	mov    %rdi,0x2033b4(%rip)        # 6054c8 <global_offset>
  402114:	41 b9 00 00 00 00    	mov    $0x0,%r9d
  40211a:	41 b8 00 00 00 00    	mov    $0x0,%r8d
  402120:	b9 32 01 00 00       	mov    $0x132,%ecx
  402125:	ba 07 00 00 00       	mov    $0x7,%edx
  40212a:	be 00 00 10 00       	mov    $0x100000,%esi
  40212f:	bf 00 60 58 55       	mov    $0x55586000,%edi
  402134:	e8 57 ec ff ff       	callq  400d90 <mmap@plt>
  402139:	48 89 c3             	mov    %rax,%rbx
  40213c:	48 3d 00 60 58 55    	cmp    $0x55586000,%rax
  402142:	74 32                	je     402176 <stable_launch+0x6a>
  402144:	be 00 00 10 00       	mov    $0x100000,%esi
  402149:	48 89 c7             	mov    %rax,%rdi
  40214c:	e8 3f ed ff ff       	callq  400e90 <munmap@plt>
  402151:	ba 00 60 58 55       	mov    $0x55586000,%edx
  402156:	be 90 35 40 00       	mov    $0x403590,%esi
  40215b:	48 8b 3d 4e 33 20 00 	mov    0x20334e(%rip),%rdi        # 6054b0 <stderr@@GLIBC_2.2.5>
  402162:	b8 00 00 00 00       	mov    $0x0,%eax
  402167:	e8 b4 ec ff ff       	callq  400e20 <fprintf@plt>
  40216c:	bf 01 00 00 00       	mov    $0x1,%edi
  402171:	e8 8a ed ff ff       	callq  400f00 <exit@plt>
  402176:	48 8d 90 f8 ff 0f 00 	lea    0xffff8(%rax),%rdx
  40217d:	48 89 15 8c 3f 20 00 	mov    %rdx,0x203f8c(%rip)        # 606110 <stack_top>
  402184:	48 89 e0             	mov    %rsp,%rax
  402187:	48 89 d4             	mov    %rdx,%rsp
  40218a:	48 89 c2             	mov    %rax,%rdx
  40218d:	48 89 15 2c 33 20 00 	mov    %rdx,0x20332c(%rip)        # 6054c0 <global_save_stack>
  402194:	48 8b 3d 2d 33 20 00 	mov    0x20332d(%rip),%rdi        # 6054c8 <global_offset>
  40219b:	e8 eb fe ff ff       	callq  40208b <launch>
  4021a0:	48 8b 05 19 33 20 00 	mov    0x203319(%rip),%rax        # 6054c0 <global_save_stack>
  4021a7:	48 89 c4             	mov    %rax,%rsp
  4021aa:	be 00 00 10 00       	mov    $0x100000,%esi
  4021af:	48 89 df             	mov    %rbx,%rdi
  4021b2:	e8 d9 ec ff ff       	callq  400e90 <munmap@plt>
  4021b7:	5b                   	pop    %rbx
  4021b8:	c3                   	retq   
  4021b9:	0f 1f 80 00 00 00 00 	nopl   0x0(%rax)

00000000004021c0 <rio_readinitb>:
  4021c0:	89 37                	mov    %esi,(%rdi)
  4021c2:	c7 47 04 00 00 00 00 	movl   $0x0,0x4(%rdi)
  4021c9:	48 8d 47 10          	lea    0x10(%rdi),%rax
  4021cd:	48 89 47 08          	mov    %rax,0x8(%rdi)
  4021d1:	c3                   	retq   

00000000004021d2 <sigalrm_handler>:
  4021d2:	48 83 ec 08          	sub    $0x8,%rsp
  4021d6:	ba 00 00 00 00       	mov    $0x0,%edx
  4021db:	be d0 35 40 00       	mov    $0x4035d0,%esi
  4021e0:	48 8b 3d c9 32 20 00 	mov    0x2032c9(%rip),%rdi        # 6054b0 <stderr@@GLIBC_2.2.5>
  4021e7:	b8 00 00 00 00       	mov    $0x0,%eax
  4021ec:	e8 2f ec ff ff       	callq  400e20 <fprintf@plt>
  4021f1:	bf 01 00 00 00       	mov    $0x1,%edi
  4021f6:	e8 05 ed ff ff       	callq  400f00 <exit@plt>

00000000004021fb <urlencode>:
  4021fb:	41 54                	push   %r12
  4021fd:	55                   	push   %rbp
  4021fe:	53                   	push   %rbx
  4021ff:	48 83 ec 10          	sub    $0x10,%rsp
  402203:	48 89 fb             	mov    %rdi,%rbx
  402206:	48 89 f5             	mov    %rsi,%rbp
  402209:	b8 00 00 00 00       	mov    $0x0,%eax
  40220e:	48 c7 c1 ff ff ff ff 	mov    $0xffffffffffffffff,%rcx
  402215:	f2 ae                	repnz scas %es:(%rdi),%al
  402217:	48 f7 d1             	not    %rcx
  40221a:	8d 41 ff             	lea    -0x1(%rcx),%eax
  40221d:	e9 93 00 00 00       	jmpq   4022b5 <urlencode+0xba>
  402222:	0f b6 13             	movzbl (%rbx),%edx
  402225:	80 fa 2a             	cmp    $0x2a,%dl
  402228:	0f 94 c1             	sete   %cl
  40222b:	80 fa 2d             	cmp    $0x2d,%dl
  40222e:	0f 94 c0             	sete   %al
  402231:	08 c1                	or     %al,%cl
  402233:	75 1f                	jne    402254 <urlencode+0x59>
  402235:	80 fa 2e             	cmp    $0x2e,%dl
  402238:	74 1a                	je     402254 <urlencode+0x59>
  40223a:	80 fa 5f             	cmp    $0x5f,%dl
  40223d:	74 15                	je     402254 <urlencode+0x59>
  40223f:	8d 42 d0             	lea    -0x30(%rdx),%eax
  402242:	3c 09                	cmp    $0x9,%al
  402244:	76 0e                	jbe    402254 <urlencode+0x59>
  402246:	8d 42 bf             	lea    -0x41(%rdx),%eax
  402249:	3c 19                	cmp    $0x19,%al
  40224b:	76 07                	jbe    402254 <urlencode+0x59>
  40224d:	8d 42 9f             	lea    -0x61(%rdx),%eax
  402250:	3c 19                	cmp    $0x19,%al
  402252:	77 09                	ja     40225d <urlencode+0x62>
  402254:	88 55 00             	mov    %dl,0x0(%rbp)
  402257:	48 8d 6d 01          	lea    0x1(%rbp),%rbp
  40225b:	eb 51                	jmp    4022ae <urlencode+0xb3>
  40225d:	80 fa 20             	cmp    $0x20,%dl
  402260:	75 0a                	jne    40226c <urlencode+0x71>
  402262:	c6 45 00 2b          	movb   $0x2b,0x0(%rbp)
  402266:	48 8d 6d 01          	lea    0x1(%rbp),%rbp
  40226a:	eb 42                	jmp    4022ae <urlencode+0xb3>
  40226c:	8d 42 e0             	lea    -0x20(%rdx),%eax
  40226f:	3c 5f                	cmp    $0x5f,%al
  402271:	0f 96 c1             	setbe  %cl
  402274:	80 fa 09             	cmp    $0x9,%dl
  402277:	0f 94 c0             	sete   %al
  40227a:	08 c1                	or     %al,%cl
  40227c:	74 45                	je     4022c3 <urlencode+0xc8>
  40227e:	0f b6 d2             	movzbl %dl,%edx
  402281:	be 68 36 40 00       	mov    $0x403668,%esi
  402286:	48 89 e7             	mov    %rsp,%rdi
  402289:	b8 00 00 00 00       	mov    $0x0,%eax
  40228e:	e8 5d ec ff ff       	callq  400ef0 <sprintf@plt>
  402293:	0f b6 04 24          	movzbl (%rsp),%eax
  402297:	88 45 00             	mov    %al,0x0(%rbp)
  40229a:	0f b6 44 24 01       	movzbl 0x1(%rsp),%eax
  40229f:	88 45 01             	mov    %al,0x1(%rbp)
  4022a2:	0f b6 44 24 02       	movzbl 0x2(%rsp),%eax
  4022a7:	88 45 02             	mov    %al,0x2(%rbp)
  4022aa:	48 8d 6d 03          	lea    0x3(%rbp),%rbp
  4022ae:	48 83 c3 01          	add    $0x1,%rbx
  4022b2:	44 89 e0             	mov    %r12d,%eax
  4022b5:	44 8d 60 ff          	lea    -0x1(%rax),%r12d
  4022b9:	85 c0                	test   %eax,%eax
  4022bb:	0f 85 61 ff ff ff    	jne    402222 <urlencode+0x27>
  4022c1:	eb 05                	jmp    4022c8 <urlencode+0xcd>
  4022c3:	b8 ff ff ff ff       	mov    $0xffffffff,%eax
  4022c8:	48 83 c4 10          	add    $0x10,%rsp
  4022cc:	5b                   	pop    %rbx
  4022cd:	5d                   	pop    %rbp
  4022ce:	41 5c                	pop    %r12
  4022d0:	c3                   	retq   

00000000004022d1 <rio_writen>:
  4022d1:	41 55                	push   %r13
  4022d3:	41 54                	push   %r12
  4022d5:	55                   	push   %rbp
  4022d6:	53                   	push   %rbx
  4022d7:	48 83 ec 08          	sub    $0x8,%rsp
  4022db:	41 89 fc             	mov    %edi,%r12d
  4022de:	48 89 f5             	mov    %rsi,%rbp
  4022e1:	49 89 d5             	mov    %rdx,%r13
  4022e4:	48 89 d3             	mov    %rdx,%rbx
  4022e7:	eb 28                	jmp    402311 <rio_writen+0x40>
  4022e9:	48 89 da             	mov    %rbx,%rdx
  4022ec:	48 89 ee             	mov    %rbp,%rsi
  4022ef:	44 89 e7             	mov    %r12d,%edi
  4022f2:	e8 89 ea ff ff       	callq  400d80 <write@plt>
  4022f7:	48 85 c0             	test   %rax,%rax
  4022fa:	7f 0f                	jg     40230b <rio_writen+0x3a>
  4022fc:	e8 2f ea ff ff       	callq  400d30 <__errno_location@plt>
  402301:	83 38 04             	cmpl   $0x4,(%rax)
  402304:	75 15                	jne    40231b <rio_writen+0x4a>
  402306:	b8 00 00 00 00       	mov    $0x0,%eax
  40230b:	48 29 c3             	sub    %rax,%rbx
  40230e:	48 01 c5             	add    %rax,%rbp
  402311:	48 85 db             	test   %rbx,%rbx
  402314:	75 d3                	jne    4022e9 <rio_writen+0x18>
  402316:	4c 89 e8             	mov    %r13,%rax
  402319:	eb 07                	jmp    402322 <rio_writen+0x51>
  40231b:	48 c7 c0 ff ff ff ff 	mov    $0xffffffffffffffff,%rax
  402322:	48 83 c4 08          	add    $0x8,%rsp
  402326:	5b                   	pop    %rbx
  402327:	5d                   	pop    %rbp
  402328:	41 5c                	pop    %r12
  40232a:	41 5d                	pop    %r13
  40232c:	c3                   	retq   

000000000040232d <rio_read>:
  40232d:	41 56                	push   %r14
  40232f:	41 55                	push   %r13
  402331:	41 54                	push   %r12
  402333:	55                   	push   %rbp
  402334:	53                   	push   %rbx
  402335:	48 89 fb             	mov    %rdi,%rbx
  402338:	49 89 f6             	mov    %rsi,%r14
  40233b:	49 89 d5             	mov    %rdx,%r13
  40233e:	4c 8d 67 10          	lea    0x10(%rdi),%r12
  402342:	eb 2a                	jmp    40236e <rio_read+0x41>
  402344:	ba 00 20 00 00       	mov    $0x2000,%edx
  402349:	4c 89 e6             	mov    %r12,%rsi
  40234c:	8b 3b                	mov    (%rbx),%edi
  40234e:	e8 8d ea ff ff       	callq  400de0 <read@plt>
  402353:	89 43 04             	mov    %eax,0x4(%rbx)
  402356:	85 c0                	test   %eax,%eax
  402358:	79 0c                	jns    402366 <rio_read+0x39>
  40235a:	e8 d1 e9 ff ff       	callq  400d30 <__errno_location@plt>
  40235f:	83 38 04             	cmpl   $0x4,(%rax)
  402362:	74 0a                	je     40236e <rio_read+0x41>
  402364:	eb 37                	jmp    40239d <rio_read+0x70>
  402366:	85 c0                	test   %eax,%eax
  402368:	74 3c                	je     4023a6 <rio_read+0x79>
  40236a:	4c 89 63 08          	mov    %r12,0x8(%rbx)
  40236e:	8b 6b 04             	mov    0x4(%rbx),%ebp
  402371:	85 ed                	test   %ebp,%ebp
  402373:	7e cf                	jle    402344 <rio_read+0x17>
  402375:	89 e8                	mov    %ebp,%eax
  402377:	4c 39 e8             	cmp    %r13,%rax
  40237a:	72 03                	jb     40237f <rio_read+0x52>
  40237c:	44 89 ed             	mov    %r13d,%ebp
  40237f:	4c 63 e5             	movslq %ebp,%r12
  402382:	48 8b 73 08          	mov    0x8(%rbx),%rsi
  402386:	4c 89 e2             	mov    %r12,%rdx
  402389:	4c 89 f7             	mov    %r14,%rdi
  40238c:	e8 af ea ff ff       	callq  400e40 <memcpy@plt>
  402391:	4c 01 63 08          	add    %r12,0x8(%rbx)
  402395:	29 6b 04             	sub    %ebp,0x4(%rbx)
  402398:	4c 89 e0             	mov    %r12,%rax
  40239b:	eb 0e                	jmp    4023ab <rio_read+0x7e>
  40239d:	48 c7 c0 ff ff ff ff 	mov    $0xffffffffffffffff,%rax
  4023a4:	eb 05                	jmp    4023ab <rio_read+0x7e>
  4023a6:	b8 00 00 00 00       	mov    $0x0,%eax
  4023ab:	5b                   	pop    %rbx
  4023ac:	5d                   	pop    %rbp
  4023ad:	41 5c                	pop    %r12
  4023af:	41 5d                	pop    %r13
  4023b1:	41 5e                	pop    %r14
  4023b3:	c3                   	retq   

00000000004023b4 <rio_readlineb>:
  4023b4:	41 55                	push   %r13
  4023b6:	41 54                	push   %r12
  4023b8:	55                   	push   %rbp
  4023b9:	53                   	push   %rbx
  4023ba:	48 83 ec 18          	sub    $0x18,%rsp
  4023be:	49 89 fd             	mov    %rdi,%r13
  4023c1:	48 89 f5             	mov    %rsi,%rbp
  4023c4:	49 89 d4             	mov    %rdx,%r12
  4023c7:	bb 01 00 00 00       	mov    $0x1,%ebx
  4023cc:	eb 3d                	jmp    40240b <rio_readlineb+0x57>
  4023ce:	ba 01 00 00 00       	mov    $0x1,%edx
  4023d3:	48 8d 74 24 0f       	lea    0xf(%rsp),%rsi
  4023d8:	4c 89 ef             	mov    %r13,%rdi
  4023db:	e8 4d ff ff ff       	callq  40232d <rio_read>
  4023e0:	83 f8 01             	cmp    $0x1,%eax
  4023e3:	75 12                	jne    4023f7 <rio_readlineb+0x43>
  4023e5:	48 8d 55 01          	lea    0x1(%rbp),%rdx
  4023e9:	0f b6 44 24 0f       	movzbl 0xf(%rsp),%eax
  4023ee:	88 45 00             	mov    %al,0x0(%rbp)
  4023f1:	3c 0a                	cmp    $0xa,%al
  4023f3:	75 0f                	jne    402404 <rio_readlineb+0x50>
  4023f5:	eb 1b                	jmp    402412 <rio_readlineb+0x5e>
  4023f7:	85 c0                	test   %eax,%eax
  4023f9:	75 23                	jne    40241e <rio_readlineb+0x6a>
  4023fb:	48 83 fb 01          	cmp    $0x1,%rbx
  4023ff:	90                   	nop
  402400:	75 13                	jne    402415 <rio_readlineb+0x61>
  402402:	eb 23                	jmp    402427 <rio_readlineb+0x73>
  402404:	48 83 c3 01          	add    $0x1,%rbx
  402408:	48 89 d5             	mov    %rdx,%rbp
  40240b:	4c 39 e3             	cmp    %r12,%rbx
  40240e:	72 be                	jb     4023ce <rio_readlineb+0x1a>
  402410:	eb 03                	jmp    402415 <rio_readlineb+0x61>
  402412:	48 89 d5             	mov    %rdx,%rbp
  402415:	c6 45 00 00          	movb   $0x0,0x0(%rbp)
  402419:	48 89 d8             	mov    %rbx,%rax
  40241c:	eb 0e                	jmp    40242c <rio_readlineb+0x78>
  40241e:	48 c7 c0 ff ff ff ff 	mov    $0xffffffffffffffff,%rax
  402425:	eb 05                	jmp    40242c <rio_readlineb+0x78>
  402427:	b8 00 00 00 00       	mov    $0x0,%eax
  40242c:	48 83 c4 18          	add    $0x18,%rsp
  402430:	5b                   	pop    %rbx
  402431:	5d                   	pop    %rbp
  402432:	41 5c                	pop    %r12
  402434:	41 5d                	pop    %r13
  402436:	c3                   	retq   

0000000000402437 <submitr>:
  402437:	41 57                	push   %r15
  402439:	41 56                	push   %r14
  40243b:	41 55                	push   %r13
  40243d:	41 54                	push   %r12
  40243f:	55                   	push   %rbp
  402440:	53                   	push   %rbx
  402441:	48 81 ec 48 a0 00 00 	sub    $0xa048,%rsp
  402448:	49 89 fc             	mov    %rdi,%r12
  40244b:	89 74 24 04          	mov    %esi,0x4(%rsp)
  40244f:	49 89 d7             	mov    %rdx,%r15
  402452:	49 89 ce             	mov    %rcx,%r14
  402455:	4c 89 44 24 08       	mov    %r8,0x8(%rsp)
  40245a:	4d 89 cd             	mov    %r9,%r13
  40245d:	48 8b 9c 24 80 a0 00 	mov    0xa080(%rsp),%rbx
  402464:	00 
  402465:	c7 84 24 1c 20 00 00 	movl   $0x0,0x201c(%rsp)
  40246c:	00 00 00 00 
  402470:	ba 00 00 00 00       	mov    $0x0,%edx
  402475:	be 01 00 00 00       	mov    $0x1,%esi
  40247a:	bf 02 00 00 00       	mov    $0x2,%edi
  40247f:	e8 9c ea ff ff       	callq  400f20 <socket@plt>
  402484:	89 c5                	mov    %eax,%ebp
  402486:	85 c0                	test   %eax,%eax
  402488:	79 4e                	jns    4024d8 <submitr+0xa1>
  40248a:	48 b8 45 72 72 6f 72 	movabs $0x43203a726f727245,%rax
  402491:	3a 20 43 
  402494:	48 89 03             	mov    %rax,(%rbx)
  402497:	48 b8 6c 69 65 6e 74 	movabs $0x6e7520746e65696c,%rax
  40249e:	20 75 6e 
  4024a1:	48 89 43 08          	mov    %rax,0x8(%rbx)
  4024a5:	48 b8 61 62 6c 65 20 	movabs $0x206f7420656c6261,%rax
  4024ac:	74 6f 20 
  4024af:	48 89 43 10          	mov    %rax,0x10(%rbx)
  4024b3:	48 b8 63 72 65 61 74 	movabs $0x7320657461657263,%rax
  4024ba:	65 20 73 
  4024bd:	48 89 43 18          	mov    %rax,0x18(%rbx)
  4024c1:	c7 43 20 6f 63 6b 65 	movl   $0x656b636f,0x20(%rbx)
  4024c8:	66 c7 43 24 74 00    	movw   $0x74,0x24(%rbx)
  4024ce:	b8 ff ff ff ff       	mov    $0xffffffff,%eax
  4024d3:	e9 94 06 00 00       	jmpq   402b6c <submitr+0x735>
  4024d8:	4c 89 e7             	mov    %r12,%rdi
  4024db:	e8 30 e9 ff ff       	callq  400e10 <gethostbyname@plt>
  4024e0:	48 85 c0             	test   %rax,%rax
  4024e3:	75 67                	jne    40254c <submitr+0x115>
  4024e5:	48 b8 45 72 72 6f 72 	movabs $0x44203a726f727245,%rax
  4024ec:	3a 20 44 
  4024ef:	48 89 03             	mov    %rax,(%rbx)
  4024f2:	48 b8 4e 53 20 69 73 	movabs $0x6e7520736920534e,%rax
  4024f9:	20 75 6e 
  4024fc:	48 89 43 08          	mov    %rax,0x8(%rbx)
  402500:	48 b8 61 62 6c 65 20 	movabs $0x206f7420656c6261,%rax
  402507:	74 6f 20 
  40250a:	48 89 43 10          	mov    %rax,0x10(%rbx)
  40250e:	48 b8 72 65 73 6f 6c 	movabs $0x2065766c6f736572,%rax
  402515:	76 65 20 
  402518:	48 89 43 18          	mov    %rax,0x18(%rbx)
  40251c:	48 b8 73 65 72 76 65 	movabs $0x6120726576726573,%rax
  402523:	72 20 61 
  402526:	48 89 43 20          	mov    %rax,0x20(%rbx)
  40252a:	c7 43 28 64 64 72 65 	movl   $0x65726464,0x28(%rbx)
  402531:	66 c7 43 2c 73 73    	movw   $0x7373,0x2c(%rbx)
  402537:	c6 43 2e 00          	movb   $0x0,0x2e(%rbx)
  40253b:	89 ef                	mov    %ebp,%edi
  40253d:	e8 8e e8 ff ff       	callq  400dd0 <close@plt>
  402542:	b8 ff ff ff ff       	mov    $0xffffffff,%eax
  402547:	e9 20 06 00 00       	jmpq   402b6c <submitr+0x735>
  40254c:	48 c7 84 24 30 a0 00 	movq   $0x0,0xa030(%rsp)
  402553:	00 00 00 00 00 
  402558:	48 c7 84 24 38 a0 00 	movq   $0x0,0xa038(%rsp)
  40255f:	00 00 00 00 00 
  402564:	66 c7 84 24 30 a0 00 	movw   $0x2,0xa030(%rsp)
  40256b:	00 02 00 
  40256e:	48 8b 48 18          	mov    0x18(%rax),%rcx
  402572:	48 63 50 14          	movslq 0x14(%rax),%rdx
  402576:	48 8d b4 24 34 a0 00 	lea    0xa034(%rsp),%rsi
  40257d:	00 
  40257e:	48 8b 39             	mov    (%rcx),%rdi
  402581:	e8 1a e9 ff ff       	callq  400ea0 <bcopy@plt>
  402586:	0f b7 44 24 04       	movzwl 0x4(%rsp),%eax
  40258b:	66 c1 c8 08          	ror    $0x8,%ax
  40258f:	66 89 84 24 32 a0 00 	mov    %ax,0xa032(%rsp)
  402596:	00 
  402597:	ba 10 00 00 00       	mov    $0x10,%edx
  40259c:	48 8d b4 24 30 a0 00 	lea    0xa030(%rsp),%rsi
  4025a3:	00 
  4025a4:	89 ef                	mov    %ebp,%edi
  4025a6:	e8 65 e9 ff ff       	callq  400f10 <connect@plt>
  4025ab:	85 c0                	test   %eax,%eax
  4025ad:	79 59                	jns    402608 <submitr+0x1d1>
  4025af:	48 b8 45 72 72 6f 72 	movabs $0x55203a726f727245,%rax
  4025b6:	3a 20 55 
  4025b9:	48 89 03             	mov    %rax,(%rbx)
  4025bc:	48 b8 6e 61 62 6c 65 	movabs $0x6f7420656c62616e,%rax
  4025c3:	20 74 6f 
  4025c6:	48 89 43 08          	mov    %rax,0x8(%rbx)
  4025ca:	48 b8 20 63 6f 6e 6e 	movabs $0x7463656e6e6f6320,%rax
  4025d1:	65 63 74 
  4025d4:	48 89 43 10          	mov    %rax,0x10(%rbx)
  4025d8:	48 b8 20 74 6f 20 74 	movabs $0x20656874206f7420,%rax
  4025df:	68 65 20 
  4025e2:	48 89 43 18          	mov    %rax,0x18(%rbx)
  4025e6:	c7 43 20 73 65 72 76 	movl   $0x76726573,0x20(%rbx)
  4025ed:	66 c7 43 24 65 72    	movw   $0x7265,0x24(%rbx)
  4025f3:	c6 43 26 00          	movb   $0x0,0x26(%rbx)
  4025f7:	89 ef                	mov    %ebp,%edi
  4025f9:	e8 d2 e7 ff ff       	callq  400dd0 <close@plt>
  4025fe:	b8 ff ff ff ff       	mov    $0xffffffff,%eax
  402603:	e9 64 05 00 00       	jmpq   402b6c <submitr+0x735>
  402608:	48 c7 c2 ff ff ff ff 	mov    $0xffffffffffffffff,%rdx
  40260f:	4c 89 ef             	mov    %r13,%rdi
  402612:	b8 00 00 00 00       	mov    $0x0,%eax
  402617:	48 89 d1             	mov    %rdx,%rcx
  40261a:	f2 ae                	repnz scas %es:(%rdi),%al
  40261c:	48 f7 d1             	not    %rcx
  40261f:	48 89 ce             	mov    %rcx,%rsi
  402622:	4c 89 ff             	mov    %r15,%rdi
  402625:	48 89 d1             	mov    %rdx,%rcx
  402628:	f2 ae                	repnz scas %es:(%rdi),%al
  40262a:	48 f7 d1             	not    %rcx
  40262d:	49 89 c8             	mov    %rcx,%r8
  402630:	4c 89 f7             	mov    %r14,%rdi
  402633:	48 89 d1             	mov    %rdx,%rcx
  402636:	f2 ae                	repnz scas %es:(%rdi),%al
  402638:	49 29 c8             	sub    %rcx,%r8
  40263b:	48 8b 7c 24 08       	mov    0x8(%rsp),%rdi
  402640:	48 89 d1             	mov    %rdx,%rcx
  402643:	f2 ae                	repnz scas %es:(%rdi),%al
  402645:	49 29 c8             	sub    %rcx,%r8
  402648:	48 8d 44 76 fd       	lea    -0x3(%rsi,%rsi,2),%rax
  40264d:	49 8d 44 00 7b       	lea    0x7b(%r8,%rax,1),%rax
  402652:	48 3d 00 20 00 00    	cmp    $0x2000,%rax
  402658:	76 72                	jbe    4026cc <submitr+0x295>
  40265a:	48 b8 45 72 72 6f 72 	movabs $0x52203a726f727245,%rax
  402661:	3a 20 52 
  402664:	48 89 03             	mov    %rax,(%rbx)
  402667:	48 b8 65 73 75 6c 74 	movabs $0x747320746c757365,%rax
  40266e:	20 73 74 
  402671:	48 89 43 08          	mov    %rax,0x8(%rbx)
  402675:	48 b8 72 69 6e 67 20 	movabs $0x6f6f7420676e6972,%rax
  40267c:	74 6f 6f 
  40267f:	48 89 43 10          	mov    %rax,0x10(%rbx)
  402683:	48 b8 20 6c 61 72 67 	movabs $0x202e656772616c20,%rax
  40268a:	65 2e 20 
  40268d:	48 89 43 18          	mov    %rax,0x18(%rbx)
  402691:	48 b8 49 6e 63 72 65 	movabs $0x6573616572636e49,%rax
  402698:	61 73 65 
  40269b:	48 89 43 20          	mov    %rax,0x20(%rbx)
  40269f:	48 b8 20 53 55 42 4d 	movabs $0x5254494d42555320,%rax
  4026a6:	49 54 52 
  4026a9:	48 89 43 28          	mov    %rax,0x28(%rbx)
  4026ad:	48 b8 5f 4d 41 58 42 	movabs $0x46554258414d5f,%rax
  4026b4:	55 46 00 
  4026b7:	48 89 43 30          	mov    %rax,0x30(%rbx)
  4026bb:	89 ef                	mov    %ebp,%edi
  4026bd:	e8 0e e7 ff ff       	callq  400dd0 <close@plt>
  4026c2:	b8 ff ff ff ff       	mov    $0xffffffff,%eax
  4026c7:	e9 a0 04 00 00       	jmpq   402b6c <submitr+0x735>
  4026cc:	48 8d b4 24 20 40 00 	lea    0x4020(%rsp),%rsi
  4026d3:	00 
  4026d4:	b9 00 04 00 00       	mov    $0x400,%ecx
  4026d9:	b8 00 00 00 00       	mov    $0x0,%eax
  4026de:	48 89 f7             	mov    %rsi,%rdi
  4026e1:	f3 48 ab             	rep stos %rax,%es:(%rdi)
  4026e4:	4c 89 ef             	mov    %r13,%rdi
  4026e7:	e8 0f fb ff ff       	callq  4021fb <urlencode>
  4026ec:	85 c0                	test   %eax,%eax
  4026ee:	0f 89 8a 00 00 00    	jns    40277e <submitr+0x347>
  4026f4:	48 b8 45 72 72 6f 72 	movabs $0x52203a726f727245,%rax
  4026fb:	3a 20 52 
  4026fe:	48 89 03             	mov    %rax,(%rbx)
  402701:	48 b8 65 73 75 6c 74 	movabs $0x747320746c757365,%rax
  402708:	20 73 74 
  40270b:	48 89 43 08          	mov    %rax,0x8(%rbx)
  40270f:	48 b8 72 69 6e 67 20 	movabs $0x6e6f6320676e6972,%rax
  402716:	63 6f 6e 
  402719:	48 89 43 10          	mov    %rax,0x10(%rbx)
  40271d:	48 b8 74 61 69 6e 73 	movabs $0x6e6120736e696174,%rax
  402724:	20 61 6e 
  402727:	48 89 43 18          	mov    %rax,0x18(%rbx)
  40272b:	48 b8 20 69 6c 6c 65 	movabs $0x6c6167656c6c6920,%rax
  402732:	67 61 6c 
  402735:	48 89 43 20          	mov    %rax,0x20(%rbx)
  402739:	48 b8 20 6f 72 20 75 	movabs $0x72706e7520726f20,%rax
  402740:	6e 70 72 
  402743:	48 89 43 28          	mov    %rax,0x28(%rbx)
  402747:	48 b8 69 6e 74 61 62 	movabs $0x20656c6261746e69,%rax
  40274e:	6c 65 20 
  402751:	48 89 43 30          	mov    %rax,0x30(%rbx)
  402755:	48 b8 63 68 61 72 61 	movabs $0x6574636172616863,%rax
  40275c:	63 74 65 
  40275f:	48 89 43 38          	mov    %rax,0x38(%rbx)
  402763:	66 c7 43 40 72 2e    	movw   $0x2e72,0x40(%rbx)
  402769:	c6 43 42 00          	movb   $0x0,0x42(%rbx)
  40276d:	89 ef                	mov    %ebp,%edi
  40276f:	e8 5c e6 ff ff       	callq  400dd0 <close@plt>
  402774:	b8 ff ff ff ff       	mov    $0xffffffff,%eax
  402779:	e9 ee 03 00 00       	jmpq   402b6c <submitr+0x735>
  40277e:	4d 89 e1             	mov    %r12,%r9
  402781:	4c 8d 84 24 20 40 00 	lea    0x4020(%rsp),%r8
  402788:	00 
  402789:	4c 89 f9             	mov    %r15,%rcx
  40278c:	4c 89 f2             	mov    %r14,%rdx
  40278f:	be f8 35 40 00       	mov    $0x4035f8,%esi
  402794:	48 8d bc 24 20 60 00 	lea    0x6020(%rsp),%rdi
  40279b:	00 
  40279c:	b8 00 00 00 00       	mov    $0x0,%eax
  4027a1:	e8 4a e7 ff ff       	callq  400ef0 <sprintf@plt>
  4027a6:	48 8d bc 24 20 60 00 	lea    0x6020(%rsp),%rdi
  4027ad:	00 
  4027ae:	b8 00 00 00 00       	mov    $0x0,%eax
  4027b3:	48 c7 c1 ff ff ff ff 	mov    $0xffffffffffffffff,%rcx
  4027ba:	f2 ae                	repnz scas %es:(%rdi),%al
  4027bc:	48 f7 d1             	not    %rcx
  4027bf:	48 8d 51 ff          	lea    -0x1(%rcx),%rdx
  4027c3:	48 8d b4 24 20 60 00 	lea    0x6020(%rsp),%rsi
  4027ca:	00 
  4027cb:	89 ef                	mov    %ebp,%edi
  4027cd:	e8 ff fa ff ff       	callq  4022d1 <rio_writen>
  4027d2:	48 85 c0             	test   %rax,%rax
  4027d5:	79 6e                	jns    402845 <submitr+0x40e>
  4027d7:	48 b8 45 72 72 6f 72 	movabs $0x43203a726f727245,%rax
  4027de:	3a 20 43 
  4027e1:	48 89 03             	mov    %rax,(%rbx)
  4027e4:	48 b8 6c 69 65 6e 74 	movabs $0x6e7520746e65696c,%rax
  4027eb:	20 75 6e 
  4027ee:	48 89 43 08          	mov    %rax,0x8(%rbx)
  4027f2:	48 b8 61 62 6c 65 20 	movabs $0x206f7420656c6261,%rax
  4027f9:	74 6f 20 
  4027fc:	48 89 43 10          	mov    %rax,0x10(%rbx)
  402800:	48 b8 77 72 69 74 65 	movabs $0x6f74206574697277,%rax
  402807:	20 74 6f 
  40280a:	48 89 43 18          	mov    %rax,0x18(%rbx)
  40280e:	48 b8 20 74 68 65 20 	movabs $0x7365722065687420,%rax
  402815:	72 65 73 
  402818:	48 89 43 20          	mov    %rax,0x20(%rbx)
  40281c:	48 b8 75 6c 74 20 73 	movabs $0x7672657320746c75,%rax
  402823:	65 72 76 
  402826:	48 89 43 28          	mov    %rax,0x28(%rbx)
  40282a:	66 c7 43 30 65 72    	movw   $0x7265,0x30(%rbx)
  402830:	c6 43 32 00          	movb   $0x0,0x32(%rbx)
  402834:	89 ef                	mov    %ebp,%edi
  402836:	e8 95 e5 ff ff       	callq  400dd0 <close@plt>
  40283b:	b8 ff ff ff ff       	mov    $0xffffffff,%eax
  402840:	e9 27 03 00 00       	jmpq   402b6c <submitr+0x735>
  402845:	89 ee                	mov    %ebp,%esi
  402847:	48 8d bc 24 20 80 00 	lea    0x8020(%rsp),%rdi
  40284e:	00 
  40284f:	e8 6c f9 ff ff       	callq  4021c0 <rio_readinitb>
  402854:	ba 00 20 00 00       	mov    $0x2000,%edx
  402859:	48 8d b4 24 20 60 00 	lea    0x6020(%rsp),%rsi
  402860:	00 
  402861:	48 8d bc 24 20 80 00 	lea    0x8020(%rsp),%rdi
  402868:	00 
  402869:	e8 46 fb ff ff       	callq  4023b4 <rio_readlineb>
  40286e:	48 85 c0             	test   %rax,%rax
  402871:	7f 7d                	jg     4028f0 <submitr+0x4b9>
  402873:	48 b8 45 72 72 6f 72 	movabs $0x43203a726f727245,%rax
  40287a:	3a 20 43 
  40287d:	48 89 03             	mov    %rax,(%rbx)
  402880:	48 b8 6c 69 65 6e 74 	movabs $0x6e7520746e65696c,%rax
  402887:	20 75 6e 
  40288a:	48 89 43 08          	mov    %rax,0x8(%rbx)
  40288e:	48 b8 61 62 6c 65 20 	movabs $0x206f7420656c6261,%rax
  402895:	74 6f 20 
  402898:	48 89 43 10          	mov    %rax,0x10(%rbx)
  40289c:	48 b8 72 65 61 64 20 	movabs $0x7269662064616572,%rax
  4028a3:	66 69 72 
  4028a6:	48 89 43 18          	mov    %rax,0x18(%rbx)
  4028aa:	48 b8 73 74 20 68 65 	movabs $0x6564616568207473,%rax
  4028b1:	61 64 65 
  4028b4:	48 89 43 20          	mov    %rax,0x20(%rbx)
  4028b8:	48 b8 72 20 66 72 6f 	movabs $0x72206d6f72662072,%rax
  4028bf:	6d 20 72 
  4028c2:	48 89 43 28          	mov    %rax,0x28(%rbx)
  4028c6:	48 b8 65 73 75 6c 74 	movabs $0x657320746c757365,%rax
  4028cd:	20 73 65 
  4028d0:	48 89 43 30          	mov    %rax,0x30(%rbx)
  4028d4:	c7 43 38 72 76 65 72 	movl   $0x72657672,0x38(%rbx)
  4028db:	c6 43 3c 00          	movb   $0x0,0x3c(%rbx)
  4028df:	89 ef                	mov    %ebp,%edi
  4028e1:	e8 ea e4 ff ff       	callq  400dd0 <close@plt>
  4028e6:	b8 ff ff ff ff       	mov    $0xffffffff,%eax
  4028eb:	e9 7c 02 00 00       	jmpq   402b6c <submitr+0x735>
  4028f0:	4c 8d 44 24 10       	lea    0x10(%rsp),%r8
  4028f5:	48 8d 8c 24 1c 20 00 	lea    0x201c(%rsp),%rcx
  4028fc:	00 
  4028fd:	48 8d 94 24 20 20 00 	lea    0x2020(%rsp),%rdx
  402904:	00 
  402905:	be 6f 36 40 00       	mov    $0x40366f,%esi
  40290a:	48 8d bc 24 20 60 00 	lea    0x6020(%rsp),%rdi
  402911:	00 
  402912:	b8 00 00 00 00       	mov    $0x0,%eax
  402917:	e8 64 e5 ff ff       	callq  400e80 <__isoc99_sscanf@plt>
  40291c:	41 bc 0d 00 00 00    	mov    $0xd,%r12d
  402922:	41 bd 0a 00 00 00    	mov    $0xa,%r13d
  402928:	e9 98 00 00 00       	jmpq   4029c5 <submitr+0x58e>
  40292d:	ba 00 20 00 00       	mov    $0x2000,%edx
  402932:	48 8d b4 24 20 60 00 	lea    0x6020(%rsp),%rsi
  402939:	00 
  40293a:	48 8d bc 24 20 80 00 	lea    0x8020(%rsp),%rdi
  402941:	00 
  402942:	e8 6d fa ff ff       	callq  4023b4 <rio_readlineb>
  402947:	48 85 c0             	test   %rax,%rax
  40294a:	7f 79                	jg     4029c5 <submitr+0x58e>
  40294c:	48 b8 45 72 72 6f 72 	movabs $0x43203a726f727245,%rax
  402953:	3a 20 43 
  402956:	48 89 03             	mov    %rax,(%rbx)
  402959:	48 b8 6c 69 65 6e 74 	movabs $0x6e7520746e65696c,%rax
  402960:	20 75 6e 
  402963:	48 89 43 08          	mov    %rax,0x8(%rbx)
  402967:	48 b8 61 62 6c 65 20 	movabs $0x206f7420656c6261,%rax
  40296e:	74 6f 20 
  402971:	48 89 43 10          	mov    %rax,0x10(%rbx)
  402975:	48 b8 72 65 61 64 20 	movabs $0x6165682064616572,%rax
  40297c:	68 65 61 
  40297f:	48 89 43 18          	mov    %rax,0x18(%rbx)
  402983:	48 b8 64 65 72 73 20 	movabs $0x6f72662073726564,%rax
  40298a:	66 72 6f 
  40298d:	48 89 43 20          	mov    %rax,0x20(%rbx)
  402991:	48 b8 6d 20 74 68 65 	movabs $0x657220656874206d,%rax
  402998:	20 72 65 
  40299b:	48 89 43 28          	mov    %rax,0x28(%rbx)
  40299f:	48 b8 73 75 6c 74 20 	movabs $0x72657320746c7573,%rax
  4029a6:	73 65 72 
  4029a9:	48 89 43 30          	mov    %rax,0x30(%rbx)
  4029ad:	c7 43 38 76 65 72 00 	movl   $0x726576,0x38(%rbx)
  4029b4:	89 ef                	mov    %ebp,%edi
  4029b6:	e8 15 e4 ff ff       	callq  400dd0 <close@plt>
  4029bb:	b8 ff ff ff ff       	mov    $0xffffffff,%eax
  4029c0:	e9 a7 01 00 00       	jmpq   402b6c <submitr+0x735>
  4029c5:	0f b6 84 24 20 60 00 	movzbl 0x6020(%rsp),%eax
  4029cc:	00 
  4029cd:	44 89 e6             	mov    %r12d,%esi
  4029d0:	29 c6                	sub    %eax,%esi
  4029d2:	89 f0                	mov    %esi,%eax
  4029d4:	75 1b                	jne    4029f1 <submitr+0x5ba>
  4029d6:	0f b6 84 24 21 60 00 	movzbl 0x6021(%rsp),%eax
  4029dd:	00 
  4029de:	44 89 ea             	mov    %r13d,%edx
  4029e1:	29 c2                	sub    %eax,%edx
  4029e3:	89 d0                	mov    %edx,%eax
  4029e5:	75 0a                	jne    4029f1 <submitr+0x5ba>
  4029e7:	0f b6 84 24 22 60 00 	movzbl 0x6022(%rsp),%eax
  4029ee:	00 
  4029ef:	f7 d8                	neg    %eax
  4029f1:	85 c0                	test   %eax,%eax
  4029f3:	0f 85 34 ff ff ff    	jne    40292d <submitr+0x4f6>
  4029f9:	ba 00 20 00 00       	mov    $0x2000,%edx
  4029fe:	48 8d b4 24 20 60 00 	lea    0x6020(%rsp),%rsi
  402a05:	00 
  402a06:	48 8d bc 24 20 80 00 	lea    0x8020(%rsp),%rdi
  402a0d:	00 
  402a0e:	e8 a1 f9 ff ff       	callq  4023b4 <rio_readlineb>
  402a13:	48 85 c0             	test   %rax,%rax
  402a16:	0f 8f 83 00 00 00    	jg     402a9f <submitr+0x668>
  402a1c:	48 b8 45 72 72 6f 72 	movabs $0x43203a726f727245,%rax
  402a23:	3a 20 43 
  402a26:	48 89 03             	mov    %rax,(%rbx)
  402a29:	48 b8 6c 69 65 6e 74 	movabs $0x6e7520746e65696c,%rax
  402a30:	20 75 6e 
  402a33:	48 89 43 08          	mov    %rax,0x8(%rbx)
  402a37:	48 b8 61 62 6c 65 20 	movabs $0x206f7420656c6261,%rax
  402a3e:	74 6f 20 
  402a41:	48 89 43 10          	mov    %rax,0x10(%rbx)
  402a45:	48 b8 72 65 61 64 20 	movabs $0x6174732064616572,%rax
  402a4c:	73 74 61 
  402a4f:	48 89 43 18          	mov    %rax,0x18(%rbx)
  402a53:	48 b8 74 75 73 20 6d 	movabs $0x7373656d20737574,%rax
  402a5a:	65 73 73 
  402a5d:	48 89 43 20          	mov    %rax,0x20(%rbx)
  402a61:	48 b8 61 67 65 20 66 	movabs $0x6d6f726620656761,%rax
  402a68:	72 6f 6d 
  402a6b:	48 89 43 28          	mov    %rax,0x28(%rbx)
  402a6f:	48 b8 20 72 65 73 75 	movabs $0x20746c7573657220,%rax
  402a76:	6c 74 20 
  402a79:	48 89 43 30          	mov    %rax,0x30(%rbx)
  402a7d:	c7 43 38 73 65 72 76 	movl   $0x76726573,0x38(%rbx)
  402a84:	66 c7 43 3c 65 72    	movw   $0x7265,0x3c(%rbx)
  402a8a:	c6 43 3e 00          	movb   $0x0,0x3e(%rbx)
  402a8e:	89 ef                	mov    %ebp,%edi
  402a90:	e8 3b e3 ff ff       	callq  400dd0 <close@plt>
  402a95:	b8 ff ff ff ff       	mov    $0xffffffff,%eax
  402a9a:	e9 cd 00 00 00       	jmpq   402b6c <submitr+0x735>
  402a9f:	8b 94 24 1c 20 00 00 	mov    0x201c(%rsp),%edx
  402aa6:	81 fa c8 00 00 00    	cmp    $0xc8,%edx
  402aac:	74 28                	je     402ad6 <submitr+0x69f>
  402aae:	48 8d 4c 24 10       	lea    0x10(%rsp),%rcx
  402ab3:	be 38 36 40 00       	mov    $0x403638,%esi
  402ab8:	48 89 df             	mov    %rbx,%rdi
  402abb:	b8 00 00 00 00       	mov    $0x0,%eax
  402ac0:	e8 2b e4 ff ff       	callq  400ef0 <sprintf@plt>
  402ac5:	89 ef                	mov    %ebp,%edi
  402ac7:	e8 04 e3 ff ff       	callq  400dd0 <close@plt>
  402acc:	b8 ff ff ff ff       	mov    $0xffffffff,%eax
  402ad1:	e9 96 00 00 00       	jmpq   402b6c <submitr+0x735>
  402ad6:	48 8d b4 24 20 60 00 	lea    0x6020(%rsp),%rsi
  402add:	00 
  402ade:	48 89 df             	mov    %rbx,%rdi
  402ae1:	e8 7a e2 ff ff       	callq  400d60 <strcpy@plt>
  402ae6:	89 ef                	mov    %ebp,%edi
  402ae8:	e8 e3 e2 ff ff       	callq  400dd0 <close@plt>
  402aed:	0f b6 03             	movzbl (%rbx),%eax
  402af0:	ba 4f 00 00 00       	mov    $0x4f,%edx
  402af5:	29 c2                	sub    %eax,%edx
  402af7:	75 22                	jne    402b1b <submitr+0x6e4>
  402af9:	0f b6 4b 01          	movzbl 0x1(%rbx),%ecx
  402afd:	b8 4b 00 00 00       	mov    $0x4b,%eax
  402b02:	29 c8                	sub    %ecx,%eax
  402b04:	75 17                	jne    402b1d <submitr+0x6e6>
  402b06:	0f b6 4b 02          	movzbl 0x2(%rbx),%ecx
  402b0a:	b8 0a 00 00 00       	mov    $0xa,%eax
  402b0f:	29 c8                	sub    %ecx,%eax
  402b11:	75 0a                	jne    402b1d <submitr+0x6e6>
  402b13:	0f b6 43 03          	movzbl 0x3(%rbx),%eax
  402b17:	f7 d8                	neg    %eax
  402b19:	eb 02                	jmp    402b1d <submitr+0x6e6>
  402b1b:	89 d0                	mov    %edx,%eax
  402b1d:	85 c0                	test   %eax,%eax
  402b1f:	74 38                	je     402b59 <submitr+0x722>
  402b21:	bf 80 36 40 00       	mov    $0x403680,%edi
  402b26:	b9 05 00 00 00       	mov    $0x5,%ecx
  402b2b:	48 89 de             	mov    %rbx,%rsi
  402b2e:	f3 a6                	repz cmpsb %es:(%rdi),%ds:(%rsi)
  402b30:	0f 97 c1             	seta   %cl
  402b33:	0f 92 c0             	setb   %al
  402b36:	38 c1                	cmp    %al,%cl
  402b38:	74 26                	je     402b60 <submitr+0x729>
  402b3a:	85 d2                	test   %edx,%edx
  402b3c:	75 10                	jne    402b4e <submitr+0x717>
  402b3e:	0f b6 43 01          	movzbl 0x1(%rbx),%eax
  402b42:	b2 4b                	mov    $0x4b,%dl
  402b44:	29 c2                	sub    %eax,%edx
  402b46:	75 06                	jne    402b4e <submitr+0x717>
  402b48:	0f b6 53 02          	movzbl 0x2(%rbx),%edx
  402b4c:	f7 da                	neg    %edx
  402b4e:	85 d2                	test   %edx,%edx
  402b50:	75 15                	jne    402b67 <submitr+0x730>
  402b52:	b8 00 00 00 00       	mov    $0x0,%eax
  402b57:	eb 13                	jmp    402b6c <submitr+0x735>
  402b59:	b8 00 00 00 00       	mov    $0x0,%eax
  402b5e:	eb 0c                	jmp    402b6c <submitr+0x735>
  402b60:	b8 00 00 00 00       	mov    $0x0,%eax
  402b65:	eb 05                	jmp    402b6c <submitr+0x735>
  402b67:	b8 ff ff ff ff       	mov    $0xffffffff,%eax
  402b6c:	48 81 c4 48 a0 00 00 	add    $0xa048,%rsp
  402b73:	5b                   	pop    %rbx
  402b74:	5d                   	pop    %rbp
  402b75:	41 5c                	pop    %r12
  402b77:	41 5d                	pop    %r13
  402b79:	41 5e                	pop    %r14
  402b7b:	41 5f                	pop    %r15
  402b7d:	c3                   	retq   

0000000000402b7e <init_timeout>:
  402b7e:	53                   	push   %rbx
  402b7f:	89 fb                	mov    %edi,%ebx
  402b81:	85 ff                	test   %edi,%edi
  402b83:	74 1f                	je     402ba4 <init_timeout+0x26>
  402b85:	85 ff                	test   %edi,%edi
  402b87:	79 05                	jns    402b8e <init_timeout+0x10>
  402b89:	bb 00 00 00 00       	mov    $0x0,%ebx
  402b8e:	be d2 21 40 00       	mov    $0x4021d2,%esi
  402b93:	bf 0e 00 00 00       	mov    $0xe,%edi
  402b98:	e8 63 e2 ff ff       	callq  400e00 <signal@plt>
  402b9d:	89 df                	mov    %ebx,%edi
  402b9f:	e8 1c e2 ff ff       	callq  400dc0 <alarm@plt>
  402ba4:	5b                   	pop    %rbx
  402ba5:	c3                   	retq   

0000000000402ba6 <init_driver>:
  402ba6:	55                   	push   %rbp
  402ba7:	53                   	push   %rbx
  402ba8:	48 83 ec 18          	sub    $0x18,%rsp
  402bac:	48 89 fd             	mov    %rdi,%rbp
  402baf:	be 01 00 00 00       	mov    $0x1,%esi
  402bb4:	bf 0d 00 00 00       	mov    $0xd,%edi
  402bb9:	e8 42 e2 ff ff       	callq  400e00 <signal@plt>
  402bbe:	be 01 00 00 00       	mov    $0x1,%esi
  402bc3:	bf 1d 00 00 00       	mov    $0x1d,%edi
  402bc8:	e8 33 e2 ff ff       	callq  400e00 <signal@plt>
  402bcd:	be 01 00 00 00       	mov    $0x1,%esi
  402bd2:	bf 1d 00 00 00       	mov    $0x1d,%edi
  402bd7:	e8 24 e2 ff ff       	callq  400e00 <signal@plt>
  402bdc:	ba 00 00 00 00       	mov    $0x0,%edx
  402be1:	be 01 00 00 00       	mov    $0x1,%esi
  402be6:	bf 02 00 00 00       	mov    $0x2,%edi
  402beb:	e8 30 e3 ff ff       	callq  400f20 <socket@plt>
  402bf0:	89 c3                	mov    %eax,%ebx
  402bf2:	85 c0                	test   %eax,%eax
  402bf4:	79 4f                	jns    402c45 <init_driver+0x9f>
  402bf6:	48 b8 45 72 72 6f 72 	movabs $0x43203a726f727245,%rax
  402bfd:	3a 20 43 
  402c00:	48 89 45 00          	mov    %rax,0x0(%rbp)
  402c04:	48 b8 6c 69 65 6e 74 	movabs $0x6e7520746e65696c,%rax
  402c0b:	20 75 6e 
  402c0e:	48 89 45 08          	mov    %rax,0x8(%rbp)
  402c12:	48 b8 61 62 6c 65 20 	movabs $0x206f7420656c6261,%rax
  402c19:	74 6f 20 
  402c1c:	48 89 45 10          	mov    %rax,0x10(%rbp)
  402c20:	48 b8 63 72 65 61 74 	movabs $0x7320657461657263,%rax
  402c27:	65 20 73 
  402c2a:	48 89 45 18          	mov    %rax,0x18(%rbp)
  402c2e:	c7 45 20 6f 63 6b 65 	movl   $0x656b636f,0x20(%rbp)
  402c35:	66 c7 45 24 74 00    	movw   $0x74,0x24(%rbp)
  402c3b:	b8 ff ff ff ff       	mov    $0xffffffff,%eax
  402c40:	e9 23 01 00 00       	jmpq   402d68 <init_driver+0x1c2>
  402c45:	bf 85 36 40 00       	mov    $0x403685,%edi
  402c4a:	e8 c1 e1 ff ff       	callq  400e10 <gethostbyname@plt>
  402c4f:	48 85 c0             	test   %rax,%rax
  402c52:	75 68                	jne    402cbc <init_driver+0x116>
  402c54:	48 b8 45 72 72 6f 72 	movabs $0x44203a726f727245,%rax
  402c5b:	3a 20 44 
  402c5e:	48 89 45 00          	mov    %rax,0x0(%rbp)
  402c62:	48 b8 4e 53 20 69 73 	movabs $0x6e7520736920534e,%rax
  402c69:	20 75 6e 
  402c6c:	48 89 45 08          	mov    %rax,0x8(%rbp)
  402c70:	48 b8 61 62 6c 65 20 	movabs $0x206f7420656c6261,%rax
  402c77:	74 6f 20 
  402c7a:	48 89 45 10          	mov    %rax,0x10(%rbp)
  402c7e:	48 b8 72 65 73 6f 6c 	movabs $0x2065766c6f736572,%rax
  402c85:	76 65 20 
  402c88:	48 89 45 18          	mov    %rax,0x18(%rbp)
  402c8c:	48 b8 73 65 72 76 65 	movabs $0x6120726576726573,%rax
  402c93:	72 20 61 
  402c96:	48 89 45 20          	mov    %rax,0x20(%rbp)
  402c9a:	c7 45 28 64 64 72 65 	movl   $0x65726464,0x28(%rbp)
  402ca1:	66 c7 45 2c 73 73    	movw   $0x7373,0x2c(%rbp)
  402ca7:	c6 45 2e 00          	movb   $0x0,0x2e(%rbp)
  402cab:	89 df                	mov    %ebx,%edi
  402cad:	e8 1e e1 ff ff       	callq  400dd0 <close@plt>
  402cb2:	b8 ff ff ff ff       	mov    $0xffffffff,%eax
  402cb7:	e9 ac 00 00 00       	jmpq   402d68 <init_driver+0x1c2>
  402cbc:	48 c7 04 24 00 00 00 	movq   $0x0,(%rsp)
  402cc3:	00 
  402cc4:	48 c7 44 24 08 00 00 	movq   $0x0,0x8(%rsp)
  402ccb:	00 00 
  402ccd:	66 c7 04 24 02 00    	movw   $0x2,(%rsp)
  402cd3:	48 8b 48 18          	mov    0x18(%rax),%rcx
  402cd7:	48 63 50 14          	movslq 0x14(%rax),%rdx
  402cdb:	48 8d 74 24 04       	lea    0x4(%rsp),%rsi
  402ce0:	48 8b 39             	mov    (%rcx),%rdi
  402ce3:	e8 b8 e1 ff ff       	callq  400ea0 <bcopy@plt>
  402ce8:	66 c7 44 24 02 3c 9a 	movw   $0x9a3c,0x2(%rsp)
  402cef:	ba 10 00 00 00       	mov    $0x10,%edx
  402cf4:	48 89 e6             	mov    %rsp,%rsi
  402cf7:	89 df                	mov    %ebx,%edi
  402cf9:	e8 12 e2 ff ff       	callq  400f10 <connect@plt>
  402cfe:	85 c0                	test   %eax,%eax
  402d00:	79 50                	jns    402d52 <init_driver+0x1ac>
  402d02:	48 b8 45 72 72 6f 72 	movabs $0x55203a726f727245,%rax
  402d09:	3a 20 55 
  402d0c:	48 89 45 00          	mov    %rax,0x0(%rbp)
  402d10:	48 b8 6e 61 62 6c 65 	movabs $0x6f7420656c62616e,%rax
  402d17:	20 74 6f 
  402d1a:	48 89 45 08          	mov    %rax,0x8(%rbp)
  402d1e:	48 b8 20 63 6f 6e 6e 	movabs $0x7463656e6e6f6320,%rax
  402d25:	65 63 74 
  402d28:	48 89 45 10          	mov    %rax,0x10(%rbp)
  402d2c:	48 b8 20 74 6f 20 73 	movabs $0x76726573206f7420,%rax
  402d33:	65 72 76 
  402d36:	48 89 45 18          	mov    %rax,0x18(%rbp)
  402d3a:	66 c7 45 20 65 72    	movw   $0x7265,0x20(%rbp)
  402d40:	c6 45 22 00          	movb   $0x0,0x22(%rbp)
  402d44:	89 df                	mov    %ebx,%edi
  402d46:	e8 85 e0 ff ff       	callq  400dd0 <close@plt>
  402d4b:	b8 ff ff ff ff       	mov    $0xffffffff,%eax
  402d50:	eb 16                	jmp    402d68 <init_driver+0x1c2>
  402d52:	89 df                	mov    %ebx,%edi
  402d54:	e8 77 e0 ff ff       	callq  400dd0 <close@plt>
  402d59:	66 c7 45 00 4f 4b    	movw   $0x4b4f,0x0(%rbp)
  402d5f:	c6 45 02 00          	movb   $0x0,0x2(%rbp)
  402d63:	b8 00 00 00 00       	mov    $0x0,%eax
  402d68:	48 83 c4 18          	add    $0x18,%rsp
  402d6c:	5b                   	pop    %rbx
  402d6d:	5d                   	pop    %rbp
  402d6e:	c3                   	retq   

0000000000402d6f <driver_post>:
  402d6f:	53                   	push   %rbx
  402d70:	48 83 ec 10          	sub    $0x10,%rsp
  402d74:	4c 89 cb             	mov    %r9,%rbx
  402d77:	45 85 c0             	test   %r8d,%r8d
  402d7a:	74 22                	je     402d9e <driver_post+0x2f>
  402d7c:	48 89 ce             	mov    %rcx,%rsi
  402d7f:	bf 92 36 40 00       	mov    $0x403692,%edi
  402d84:	b8 00 00 00 00       	mov    $0x0,%eax
  402d89:	e8 12 e0 ff ff       	callq  400da0 <printf@plt>
  402d8e:	66 c7 03 4f 4b       	movw   $0x4b4f,(%rbx)
  402d93:	c6 43 02 00          	movb   $0x0,0x2(%rbx)
  402d97:	b8 00 00 00 00       	mov    $0x0,%eax
  402d9c:	eb 39                	jmp    402dd7 <driver_post+0x68>
  402d9e:	48 85 ff             	test   %rdi,%rdi
  402da1:	74 26                	je     402dc9 <driver_post+0x5a>
  402da3:	80 3f 00             	cmpb   $0x0,(%rdi)
  402da6:	74 21                	je     402dc9 <driver_post+0x5a>
  402da8:	4c 89 0c 24          	mov    %r9,(%rsp)
  402dac:	49 89 c9             	mov    %rcx,%r9
  402daf:	49 89 d0             	mov    %rdx,%r8
  402db2:	48 89 f9             	mov    %rdi,%rcx
  402db5:	48 89 f2             	mov    %rsi,%rdx
  402db8:	be 9a 3c 00 00       	mov    $0x3c9a,%esi
  402dbd:	bf 85 36 40 00       	mov    $0x403685,%edi
  402dc2:	e8 70 f6 ff ff       	callq  402437 <submitr>
  402dc7:	eb 0e                	jmp    402dd7 <driver_post+0x68>
  402dc9:	66 c7 03 4f 4b       	movw   $0x4b4f,(%rbx)
  402dce:	c6 43 02 00          	movb   $0x0,0x2(%rbx)
  402dd2:	b8 00 00 00 00       	mov    $0x0,%eax
  402dd7:	48 83 c4 10          	add    $0x10,%rsp
  402ddb:	5b                   	pop    %rbx
  402ddc:	c3                   	retq   

0000000000402ddd <check>:
  402ddd:	89 f8                	mov    %edi,%eax
  402ddf:	c1 e8 1c             	shr    $0x1c,%eax
  402de2:	85 c0                	test   %eax,%eax
  402de4:	74 1d                	je     402e03 <check+0x26>
  402de6:	b9 00 00 00 00       	mov    $0x0,%ecx
  402deb:	eb 0b                	jmp    402df8 <check+0x1b>
  402ded:	89 f8                	mov    %edi,%eax
  402def:	d3 e8                	shr    %cl,%eax
  402df1:	3c 0a                	cmp    $0xa,%al
  402df3:	74 14                	je     402e09 <check+0x2c>
  402df5:	83 c1 08             	add    $0x8,%ecx
  402df8:	83 f9 1f             	cmp    $0x1f,%ecx
  402dfb:	7e f0                	jle    402ded <check+0x10>
  402dfd:	b8 01 00 00 00       	mov    $0x1,%eax
  402e02:	c3                   	retq   
  402e03:	b8 00 00 00 00       	mov    $0x0,%eax
  402e08:	c3                   	retq   
  402e09:	b8 00 00 00 00       	mov    $0x0,%eax
  402e0e:	c3                   	retq   

0000000000402e0f <gencookie>:
  402e0f:	53                   	push   %rbx
  402e10:	83 c7 01             	add    $0x1,%edi
  402e13:	e8 28 df ff ff       	callq  400d40 <srandom@plt>
  402e18:	e8 43 e0 ff ff       	callq  400e60 <random@plt>
  402e1d:	89 c3                	mov    %eax,%ebx
  402e1f:	89 c7                	mov    %eax,%edi
  402e21:	e8 b7 ff ff ff       	callq  402ddd <check>
  402e26:	85 c0                	test   %eax,%eax
  402e28:	74 ee                	je     402e18 <gencookie+0x9>
  402e2a:	89 d8                	mov    %ebx,%eax
  402e2c:	5b                   	pop    %rbx
  402e2d:	c3                   	retq   
  402e2e:	66 90                	xchg   %ax,%ax

0000000000402e30 <__libc_csu_init>:
  402e30:	41 57                	push   %r15
  402e32:	41 89 ff             	mov    %edi,%r15d
  402e35:	41 56                	push   %r14
  402e37:	49 89 f6             	mov    %rsi,%r14
  402e3a:	41 55                	push   %r13
  402e3c:	49 89 d5             	mov    %rdx,%r13
  402e3f:	41 54                	push   %r12
  402e41:	4c 8d 25 b8 1f 20 00 	lea    0x201fb8(%rip),%r12        # 604e00 <__frame_dummy_init_array_entry>
  402e48:	55                   	push   %rbp
  402e49:	48 8d 2d b8 1f 20 00 	lea    0x201fb8(%rip),%rbp        # 604e08 <__init_array_end>
  402e50:	53                   	push   %rbx
  402e51:	4c 29 e5             	sub    %r12,%rbp
  402e54:	31 db                	xor    %ebx,%ebx
  402e56:	48 c1 fd 03          	sar    $0x3,%rbp
  402e5a:	48 83 ec 08          	sub    $0x8,%rsp
  402e5e:	e8 85 de ff ff       	callq  400ce8 <_init>
  402e63:	48 85 ed             	test   %rbp,%rbp
  402e66:	74 1e                	je     402e86 <__libc_csu_init+0x56>
  402e68:	0f 1f 84 00 00 00 00 	nopl   0x0(%rax,%rax,1)
  402e6f:	00 
  402e70:	4c 89 ea             	mov    %r13,%rdx
  402e73:	4c 89 f6             	mov    %r14,%rsi
  402e76:	44 89 ff             	mov    %r15d,%edi
  402e79:	41 ff 14 dc          	callq  *(%r12,%rbx,8)
  402e7d:	48 83 c3 01          	add    $0x1,%rbx
  402e81:	48 39 eb             	cmp    %rbp,%rbx
  402e84:	75 ea                	jne    402e70 <__libc_csu_init+0x40>
  402e86:	48 83 c4 08          	add    $0x8,%rsp
  402e8a:	5b                   	pop    %rbx
  402e8b:	5d                   	pop    %rbp
  402e8c:	41 5c                	pop    %r12
  402e8e:	41 5d                	pop    %r13
  402e90:	41 5e                	pop    %r14
  402e92:	41 5f                	pop    %r15
  402e94:	c3                   	retq   
  402e95:	90                   	nop
  402e96:	66 2e 0f 1f 84 00 00 	nopw   %cs:0x0(%rax,%rax,1)
  402e9d:	00 00 00 

0000000000402ea0 <__libc_csu_fini>:
  402ea0:	f3 c3                	repz retq 

Disassembly of section .fini:

0000000000402ea4 <_fini>:
  402ea4:	48 83 ec 08          	sub    $0x8,%rsp
  402ea8:	48 83 c4 08          	add    $0x8,%rsp
  402eac:	c3                   	retq   
